---
triple:          'arm64-apple-darwin'
binary-path:     a.out
relocations:
  - { offsetInCU: 0x2FA5, offset: 0x2FA5, size: 0x8, addend: 0x0, symName: __ZNSt3__124__put_character_sequenceB8ue170006IcNS_11char_traitsIcEEEERNS_13basic_ostreamIT_T0_EES7_PKS4_m, symObjAddr: 0x9D8, symBinAddr: 0x100002970, symSize: 0x1EC }
  - { offsetInCU: 0x80F8, offset: 0x80F8, size: 0x8, addend: 0x0, symName: __ZNSt3__1lsB8ue170006INS_11char_traitsIcEEEERNS_13basic_ostreamIcT_EES6_PKc, symObjAddr: 0x7B0, symBinAddr: 0x100002748, symSize: 0x48 }
  - { offsetInCU: 0x813E, offset: 0x813E, size: 0x8, addend: 0x0, symName: __ZNSt3__14endlB8ue170006IcNS_11char_traitsIcEEEERNS_13basic_ostreamIT_T0_EES7_, symObjAddr: 0x824, symBinAddr: 0x1000027BC, symSize: 0x58 }
  - { offsetInCU: 0x817E, offset: 0x817E, size: 0x8, addend: 0x0, symName: __ZNSt3__116__pad_and_outputB8ue170006IcNS_11char_traitsIcEEEENS_19ostreambuf_iteratorIT_T0_EES6_PKS4_S8_S8_RNS_8ios_baseES4_, symObjAddr: 0xC14, symBinAddr: 0x100002BAC, symSize: 0x240 }
  - { offsetInCU: 0x824D, offset: 0x824D, size: 0x8, addend: 0x0, symName: __ZNSt3__112__to_addressB8ue170006IcEEPT_S2_, symObjAddr: 0x117C, symBinAddr: 0x100003114, symSize: 0x14 }
  - { offsetInCU: 0x82B5, offset: 0x82B5, size: 0x8, addend: 0x0, symName: __ZNSt3__19use_facetB8ue170006INS_5ctypeIcEEEERKT_RKNS_6localeE, symObjAddr: 0x1434, symBinAddr: 0x1000033CC, symSize: 0x2C }
  - { offsetInCU: 0x8782, offset: 0x8782, size: 0x8, addend: 0x0, symName: __ZNSt3__118__constexpr_strlenB8ue170006EPKc, symObjAddr: 0x14CC, symBinAddr: 0x100003464, symSize: 0x24 }
  - { offsetInCU: 0x87AE, offset: 0x87AE, size: 0x8, addend: 0x0, symName: __ZNSt3__122__make_exception_guardB8ue170006INS_6vectorIiNS_9allocatorIiEEE16__destroy_vectorEEENS_28__exception_guard_exceptionsIT_EES7_, symObjAddr: 0x17C8, symBinAddr: 0x100003760, symSize: 0x40 }
  - { offsetInCU: 0x87E3, offset: 0x87E3, size: 0x8, addend: 0x0, symName: __ZNSt3__119__allocate_at_leastB8ue170006INS_9allocatorIiEEEENS_19__allocation_resultINS_16allocator_traitsIT_E7pointerEEERS5_m, symObjAddr: 0x1AB0, symBinAddr: 0x100003A48, symSize: 0x40 }
  - { offsetInCU: 0x8826, offset: 0x8826, size: 0x8, addend: 0x0, symName: __ZNSt3__13minB8ue170006ImEERKT_S3_S3_, symObjAddr: 0x1BEC, symBinAddr: 0x100003B84, symSize: 0x2C }
  - { offsetInCU: 0x8A53, offset: 0x8A53, size: 0x8, addend: 0x0, symName: __ZNSt3__13minB8ue170006ImNS_6__lessIvvEEEERKT_S5_S5_T0_, symObjAddr: 0x1C50, symBinAddr: 0x100003BE8, symSize: 0x54 }
  - { offsetInCU: 0x8AF2, offset: 0x8AF2, size: 0x8, addend: 0x0, symName: __ZNSt3__120__throw_length_errorB8ue170006EPKc, symObjAddr: 0x1CF4, symBinAddr: 0x100003C8C, symSize: 0x64 }
  - { offsetInCU: 0x8B1C, offset: 0x8B1C, size: 0x8, addend: 0x0, symName: __ZNSt3__117__libcpp_allocateB8ue170006Emm, symObjAddr: 0x1E64, symBinAddr: 0x100003DFC, symSize: 0x60 }
  - { offsetInCU: 0x8B76, offset: 0x8B76, size: 0x8, addend: 0x0, symName: __ZNSt3__124__is_overaligned_for_newB8ue170006Em, symObjAddr: 0x1EC4, symBinAddr: 0x100003E5C, symSize: 0x20 }
  - { offsetInCU: 0x8BA4, offset: 0x8BA4, size: 0x8, addend: 0x0, symName: __ZNSt3__121__libcpp_operator_newB8ue170006IJmSt11align_val_tEEEPvDpT_, symObjAddr: 0x1EE4, symBinAddr: 0x100003E7C, symSize: 0x2C }
  - { offsetInCU: 0x8BF1, offset: 0x8BF1, size: 0x8, addend: 0x0, symName: __ZNSt3__121__libcpp_operator_newB8ue170006IJmEEEPvDpT_, symObjAddr: 0x1F10, symBinAddr: 0x100003EA8, symSize: 0x24 }
  - { offsetInCU: 0x8C2A, offset: 0x8C2A, size: 0x8, addend: 0x0, symName: __ZNSt3__112__to_addressB8ue170006IiEEPT_S2_, symObjAddr: 0x202C, symBinAddr: 0x100003FC4, symSize: 0x14 }
  - { offsetInCU: 0x8C5F, offset: 0x8C5F, size: 0x8, addend: 0x0, symName: __ZNSt3__130__uninitialized_allocator_copyB8ue170006INS_9allocatorIiEEPiS3_S3_EET2_RT_T0_T1_S4_, symObjAddr: 0x20DC, symBinAddr: 0x100004074, symSize: 0x80 }
  - { offsetInCU: 0x8CFC, offset: 0x8CFC, size: 0x8, addend: 0x0, symName: __ZNSt3__114__unwrap_rangeB8ue170006IPiS1_EENS_4pairIT0_S3_EET_S5_, symObjAddr: 0x21CC, symBinAddr: 0x100004164, symSize: 0x60 }
  - { offsetInCU: 0x8D48, offset: 0x8D48, size: 0x8, addend: 0x0, symName: __ZNSt3__135__uninitialized_allocator_copy_implB8ue170006INS_9allocatorIiEEiiiLPv0EEEPT2_RT_PT0_S9_S5_, symObjAddr: 0x222C, symBinAddr: 0x1000041C4, symSize: 0x38 }
  - { offsetInCU: 0x8DC9, offset: 0x8DC9, size: 0x8, addend: 0x0, symName: __ZNSt3__113__unwrap_iterB8ue170006IPiNS_18__unwrap_iter_implIS1_Lb1EEELi0EEEDTclsrT0_8__unwrapclsr3stdE7declvalIT_EEEES5_, symObjAddr: 0x2264, symBinAddr: 0x1000041FC, symSize: 0x24 }
  - { offsetInCU: 0x8E0D, offset: 0x8E0D, size: 0x8, addend: 0x0, symName: __ZNSt3__113__rewrap_iterB8ue170006IPiS1_NS_18__unwrap_iter_implIS1_Lb1EEEEET_S4_T0_, symObjAddr: 0x2288, symBinAddr: 0x100004220, symSize: 0x3C }
  - { offsetInCU: 0x8E62, offset: 0x8E62, size: 0x8, addend: 0x0, symName: __ZNSt3__19make_pairB8ue170006IPiS1_EENS_4pairINS_18__unwrap_ref_decayIT_E4typeENS3_IT0_E4typeEEEOS4_OS7_, symObjAddr: 0x22C4, symBinAddr: 0x10000425C, symSize: 0x38 }
  - { offsetInCU: 0x8FB4, offset: 0x8FB4, size: 0x8, addend: 0x0, symName: __ZNSt3__14copyB8ue170006IPiS1_EET0_T_S3_S2_, symObjAddr: 0x236C, symBinAddr: 0x100004304, symSize: 0x40 }
  - { offsetInCU: 0x900E, offset: 0x900E, size: 0x8, addend: 0x0, symName: __ZNSt3__16__copyB8ue170006INS_17_ClassicAlgPolicyEPiS2_S2_EENS_4pairIT0_T2_EES4_T1_S5_, symObjAddr: 0x23AC, symBinAddr: 0x100004344, symSize: 0x44 }
  - { offsetInCU: 0x907A, offset: 0x907A, size: 0x8, addend: 0x0, symName: __ZNSt3__123__dispatch_copy_or_moveB8ue170006INS_17_ClassicAlgPolicyENS_11__copy_loopIS1_EENS_14__copy_trivialEPiS5_S5_EENS_4pairIT2_T4_EES7_T3_S8_, symObjAddr: 0x23F0, symBinAddr: 0x100004388, symSize: 0x44 }
  - { offsetInCU: 0x90F8, offset: 0x90F8, size: 0x8, addend: 0x0, symName: __ZNSt3__121__unwrap_and_dispatchB8ue170006INS_10__overloadINS_11__copy_loopINS_17_ClassicAlgPolicyEEENS_14__copy_trivialEEEPiS7_S7_Li0EEENS_4pairIT0_T2_EES9_T1_SA_, symObjAddr: 0x2434, symBinAddr: 0x1000043CC, symSize: 0xB4 }
  - { offsetInCU: 0x9244, offset: 0x9244, size: 0x8, addend: 0x0, symName: __ZNSt3__114__rewrap_rangeB8ue170006IPiS1_EET_S2_T0_, symObjAddr: 0x2530, symBinAddr: 0x1000044C8, symSize: 0x2C }
  - { offsetInCU: 0x9290, offset: 0x9290, size: 0x8, addend: 0x0, symName: __ZNSt3__119__copy_trivial_implB8ue170006IiiEENS_4pairIPT_PT0_EES3_S3_S5_, symObjAddr: 0x255C, symBinAddr: 0x1000044F4, symSize: 0x80 }
  - { offsetInCU: 0x92F8, offset: 0x92F8, size: 0x8, addend: 0x0, symName: __ZNSt3__119__constexpr_memmoveB8ue170006IiiLi0EEEPT_S2_PT0_NS_15__element_countE, symObjAddr: 0x25DC, symBinAddr: 0x100004574, symSize: 0x64 }
  - { offsetInCU: 0x9366, offset: 0x9366, size: 0x8, addend: 0x0, symName: __ZNSt3__19make_pairB8ue170006IRPiS1_EENS_4pairINS_18__unwrap_ref_decayIT_E4typeENS4_IT0_E4typeEEEOS5_OS8_, symObjAddr: 0x2640, symBinAddr: 0x1000045D8, symSize: 0x38 }
  - { offsetInCU: 0x9408, offset: 0x9408, size: 0x8, addend: 0x0, symName: __ZNSt3__119__libcpp_deallocateB8ue170006EPvmm, symObjAddr: 0x2A7C, symBinAddr: 0x100004A14, symSize: 0x60 }
  - { offsetInCU: 0x946D, offset: 0x946D, size: 0x8, addend: 0x0, symName: __ZNSt3__127__do_deallocate_handle_sizeB8ue170006IJSt11align_val_tEEEvPvmDpT_, symObjAddr: 0x2ADC, symBinAddr: 0x100004A74, symSize: 0x30 }
  - { offsetInCU: 0x94C0, offset: 0x94C0, size: 0x8, addend: 0x0, symName: __ZNSt3__127__do_deallocate_handle_sizeB8ue170006IJEEEvPvmDpT_, symObjAddr: 0x2B0C, symBinAddr: 0x100004AA4, symSize: 0x28 }
  - { offsetInCU: 0x94FE, offset: 0x94FE, size: 0x8, addend: 0x0, symName: __ZNSt3__124__libcpp_operator_deleteB8ue170006IJPvSt11align_val_tEEEvDpT_, symObjAddr: 0x2B34, symBinAddr: 0x100004ACC, symSize: 0x2C }
  - { offsetInCU: 0x9547, offset: 0x9547, size: 0x8, addend: 0x0, symName: __ZNSt3__124__libcpp_operator_deleteB8ue170006IJPvEEEvDpT_, symObjAddr: 0x2B60, symBinAddr: 0x100004AF8, symSize: 0x24 }
  - { offsetInCU: 0x957C, offset: 0x957C, size: 0x8, addend: 0x0, symName: __ZNSt3__112__to_addressB8ue170006INS_7complexIdEEEEPT_S4_, symObjAddr: 0x2F20, symBinAddr: 0x100004EB8, symSize: 0x14 }
  - { offsetInCU: 0x95B1, offset: 0x95B1, size: 0x8, addend: 0x0, symName: __ZNSt3__130__uninitialized_allocator_copyB8ue170006INS_9allocatorIiEEPKiS4_PiEET2_RT_T0_T1_S6_, symObjAddr: 0x3374, symBinAddr: 0x10000530C, symSize: 0x80 }
  - { offsetInCU: 0x964E, offset: 0x964E, size: 0x8, addend: 0x0, symName: __ZNSt3__114__unwrap_rangeB8ue170006IPKiS2_EENS_4pairIT0_S4_EET_S6_, symObjAddr: 0x33F4, symBinAddr: 0x10000538C, symSize: 0x60 }
  - { offsetInCU: 0x969A, offset: 0x969A, size: 0x8, addend: 0x0, symName: __ZNSt3__135__uninitialized_allocator_copy_implB8ue170006INS_9allocatorIiEEKiiiLPv0EEEPT2_RT_PT0_SA_S6_, symObjAddr: 0x3454, symBinAddr: 0x1000053EC, symSize: 0x38 }
  - { offsetInCU: 0x971B, offset: 0x971B, size: 0x8, addend: 0x0, symName: __ZNSt3__19make_pairB8ue170006IPKiS2_EENS_4pairINS_18__unwrap_ref_decayIT_E4typeENS4_IT0_E4typeEEEOS5_OS8_, symObjAddr: 0x348C, symBinAddr: 0x100005424, symSize: 0x38 }
  - { offsetInCU: 0x976A, offset: 0x976A, size: 0x8, addend: 0x0, symName: __ZNSt3__113__unwrap_iterB8ue170006IPKiNS_18__unwrap_iter_implIS2_Lb1EEELi0EEEDTclsrT0_8__unwrapclsr3stdE7declvalIT_EEEES6_, symObjAddr: 0x34C4, symBinAddr: 0x10000545C, symSize: 0x24 }
  - { offsetInCU: 0x98D5, offset: 0x98D5, size: 0x8, addend: 0x0, symName: __ZNSt3__112__to_addressB8ue170006IKiEEPT_S3_, symObjAddr: 0x357C, symBinAddr: 0x100005514, symSize: 0x14 }
  - { offsetInCU: 0x990A, offset: 0x990A, size: 0x8, addend: 0x0, symName: __ZNSt3__14copyB8ue170006IPKiPiEET0_T_S5_S4_, symObjAddr: 0x3590, symBinAddr: 0x100005528, symSize: 0x40 }
  - { offsetInCU: 0x9964, offset: 0x9964, size: 0x8, addend: 0x0, symName: __ZNSt3__16__copyB8ue170006INS_17_ClassicAlgPolicyEPKiS3_PiEENS_4pairIT0_T2_EES6_T1_S7_, symObjAddr: 0x35D0, symBinAddr: 0x100005568, symSize: 0x44 }
  - { offsetInCU: 0x99D0, offset: 0x99D0, size: 0x8, addend: 0x0, symName: __ZNSt3__123__dispatch_copy_or_moveB8ue170006INS_17_ClassicAlgPolicyENS_11__copy_loopIS1_EENS_14__copy_trivialEPKiS6_PiEENS_4pairIT2_T4_EES9_T3_SA_, symObjAddr: 0x3614, symBinAddr: 0x1000055AC, symSize: 0x44 }
  - { offsetInCU: 0x9A4E, offset: 0x9A4E, size: 0x8, addend: 0x0, symName: __ZNSt3__121__unwrap_and_dispatchB8ue170006INS_10__overloadINS_11__copy_loopINS_17_ClassicAlgPolicyEEENS_14__copy_trivialEEEPKiS8_PiLi0EEENS_4pairIT0_T2_EESB_T1_SC_, symObjAddr: 0x3658, symBinAddr: 0x1000055F0, symSize: 0xB4 }
  - { offsetInCU: 0x9BDF, offset: 0x9BDF, size: 0x8, addend: 0x0, symName: __ZNSt3__19make_pairB8ue170006IPKiPiEENS_4pairINS_18__unwrap_ref_decayIT_E4typeENS5_IT0_E4typeEEEOS6_OS9_, symObjAddr: 0x3754, symBinAddr: 0x1000056EC, symSize: 0x38 }
  - { offsetInCU: 0x9C2E, offset: 0x9C2E, size: 0x8, addend: 0x0, symName: __ZNSt3__114__rewrap_rangeB8ue170006IPKiS2_EET_S3_T0_, symObjAddr: 0x378C, symBinAddr: 0x100005724, symSize: 0x2C }
  - { offsetInCU: 0x9C7A, offset: 0x9C7A, size: 0x8, addend: 0x0, symName: __ZNSt3__119__copy_trivial_implB8ue170006IKiiEENS_4pairIPT_PT0_EES4_S4_S6_, symObjAddr: 0x37B8, symBinAddr: 0x100005750, symSize: 0x80 }
  - { offsetInCU: 0x9CE2, offset: 0x9CE2, size: 0x8, addend: 0x0, symName: __ZNSt3__119__constexpr_memmoveB8ue170006IiKiLi0EEEPT_S3_PT0_NS_15__element_countE, symObjAddr: 0x3838, symBinAddr: 0x1000057D0, symSize: 0x64 }
  - { offsetInCU: 0x9D50, offset: 0x9D50, size: 0x8, addend: 0x0, symName: __ZNSt3__19make_pairB8ue170006IRPKiPiEENS_4pairINS_18__unwrap_ref_decayIT_E4typeENS6_IT0_E4typeEEEOS7_OSA_, symObjAddr: 0x389C, symBinAddr: 0x100005834, symSize: 0x38 }
  - { offsetInCU: 0x9D9F, offset: 0x9D9F, size: 0x8, addend: 0x0, symName: __ZNSt3__113__rewrap_iterB8ue170006IPKiS2_NS_18__unwrap_iter_implIS2_Lb1EEEEET_S5_T0_, symObjAddr: 0x39B4, symBinAddr: 0x10000594C, symSize: 0x3C }
  - { offsetInCU: 0x9DF4, offset: 0x9DF4, size: 0x8, addend: 0x0, symName: __ZNSt3__122__make_exception_guardB8ue170006INS_6vectorINS_7complexIdEENS_9allocatorIS3_EEE16__destroy_vectorEEENS_28__exception_guard_exceptionsIT_EES9_, symObjAddr: 0x3B14, symBinAddr: 0x100005AAC, symSize: 0x40 }
  - { offsetInCU: 0x9E29, offset: 0x9E29, size: 0x8, addend: 0x0, symName: __ZNSt3__119__allocate_at_leastB8ue170006INS_9allocatorINS_7complexIdEEEEEENS_19__allocation_resultINS_16allocator_traitsIT_E7pointerEEERS7_m, symObjAddr: 0x3DE4, symBinAddr: 0x100005D7C, symSize: 0x40 }
  - { offsetInCU: 0x9E6C, offset: 0x9E6C, size: 0x8, addend: 0x0, symName: __ZNSt3__122__make_exception_guardB8ue170006INS_6vectorIPdNS_9allocatorIS2_EEE16__destroy_vectorEEENS_28__exception_guard_exceptionsIT_EES8_, symObjAddr: 0x4354, symBinAddr: 0x1000062EC, symSize: 0x40 }
  - { offsetInCU: 0x9EA1, offset: 0x9EA1, size: 0x8, addend: 0x0, symName: __ZNSt3__119__allocate_at_leastB8ue170006INS_9allocatorIPdEEEENS_19__allocation_resultINS_16allocator_traitsIT_E7pointerEEERS6_m, symObjAddr: 0x4754, symBinAddr: 0x1000066EC, symSize: 0x40 }
  - { offsetInCU: 0x9EE4, offset: 0x9EE4, size: 0x8, addend: 0x0, symName: __ZNSt3__112__to_addressB8ue170006IPdEEPT_S3_, symObjAddr: 0x4A78, symBinAddr: 0x100006A10, symSize: 0x14 }
  - { offsetInCU: 0x9F19, offset: 0x9F19, size: 0x8, addend: 0x0, symName: __ZNSt3__130__uninitialized_allocator_copyB8ue170006INS_9allocatorIPdEEPKS2_S5_PS2_EET2_RT_T0_T1_S7_, symObjAddr: 0x4B28, symBinAddr: 0x100006AC0, symSize: 0x80 }
  - { offsetInCU: 0x9FB6, offset: 0x9FB6, size: 0x8, addend: 0x0, symName: __ZNSt3__114__unwrap_rangeB8ue170006IPKPdS3_EENS_4pairIT0_S5_EET_S7_, symObjAddr: 0x4C18, symBinAddr: 0x100006BB0, symSize: 0x60 }
  - { offsetInCU: 0xA002, offset: 0xA002, size: 0x8, addend: 0x0, symName: __ZNSt3__135__uninitialized_allocator_copy_implB8ue170006INS_9allocatorIPdEEKS2_S2_S2_LPv0EEEPT2_RT_PT0_SB_S7_, symObjAddr: 0x4C78, symBinAddr: 0x100006C10, symSize: 0x38 }
  - { offsetInCU: 0xA083, offset: 0xA083, size: 0x8, addend: 0x0, symName: __ZNSt3__113__unwrap_iterB8ue170006IPPdNS_18__unwrap_iter_implIS2_Lb1EEELi0EEEDTclsrT0_8__unwrapclsr3stdE7declvalIT_EEEES6_, symObjAddr: 0x4CB0, symBinAddr: 0x100006C48, symSize: 0x24 }
  - { offsetInCU: 0xA0C7, offset: 0xA0C7, size: 0x8, addend: 0x0, symName: __ZNSt3__113__rewrap_iterB8ue170006IPPdS2_NS_18__unwrap_iter_implIS2_Lb1EEEEET_S5_T0_, symObjAddr: 0x4CD4, symBinAddr: 0x100006C6C, symSize: 0x3C }
  - { offsetInCU: 0xA11C, offset: 0xA11C, size: 0x8, addend: 0x0, symName: __ZNSt3__19make_pairB8ue170006IPKPdS3_EENS_4pairINS_18__unwrap_ref_decayIT_E4typeENS5_IT0_E4typeEEEOS6_OS9_, symObjAddr: 0x4D10, symBinAddr: 0x100006CA8, symSize: 0x38 }
  - { offsetInCU: 0xA16B, offset: 0xA16B, size: 0x8, addend: 0x0, symName: __ZNSt3__113__unwrap_iterB8ue170006IPKPdNS_18__unwrap_iter_implIS3_Lb1EEELi0EEEDTclsrT0_8__unwrapclsr3stdE7declvalIT_EEEES7_, symObjAddr: 0x4D48, symBinAddr: 0x100006CE0, symSize: 0x24 }
  - { offsetInCU: 0xA2D6, offset: 0xA2D6, size: 0x8, addend: 0x0, symName: __ZNSt3__112__to_addressB8ue170006IKPdEEPT_S4_, symObjAddr: 0x4E00, symBinAddr: 0x100006D98, symSize: 0x14 }
  - { offsetInCU: 0xA30B, offset: 0xA30B, size: 0x8, addend: 0x0, symName: __ZNSt3__14copyB8ue170006IPKPdPS1_EET0_T_S6_S5_, symObjAddr: 0x4E14, symBinAddr: 0x100006DAC, symSize: 0x40 }
  - { offsetInCU: 0xA365, offset: 0xA365, size: 0x8, addend: 0x0, symName: __ZNSt3__16__copyB8ue170006INS_17_ClassicAlgPolicyEPKPdS4_PS2_EENS_4pairIT0_T2_EES7_T1_S8_, symObjAddr: 0x4E54, symBinAddr: 0x100006DEC, symSize: 0x44 }
  - { offsetInCU: 0xA3D1, offset: 0xA3D1, size: 0x8, addend: 0x0, symName: __ZNSt3__123__dispatch_copy_or_moveB8ue170006INS_17_ClassicAlgPolicyENS_11__copy_loopIS1_EENS_14__copy_trivialEPKPdS7_PS5_EENS_4pairIT2_T4_EESA_T3_SB_, symObjAddr: 0x4E98, symBinAddr: 0x100006E30, symSize: 0x44 }
  - { offsetInCU: 0xA44F, offset: 0xA44F, size: 0x8, addend: 0x0, symName: __ZNSt3__121__unwrap_and_dispatchB8ue170006INS_10__overloadINS_11__copy_loopINS_17_ClassicAlgPolicyEEENS_14__copy_trivialEEEPKPdS9_PS7_Li0EEENS_4pairIT0_T2_EESC_T1_SD_, symObjAddr: 0x4EDC, symBinAddr: 0x100006E74, symSize: 0xB4 }
  - { offsetInCU: 0xA5E0, offset: 0xA5E0, size: 0x8, addend: 0x0, symName: __ZNSt3__19make_pairB8ue170006IPKPdPS1_EENS_4pairINS_18__unwrap_ref_decayIT_E4typeENS6_IT0_E4typeEEEOS7_OSA_, symObjAddr: 0x4FD8, symBinAddr: 0x100006F70, symSize: 0x38 }
  - { offsetInCU: 0xA62F, offset: 0xA62F, size: 0x8, addend: 0x0, symName: __ZNSt3__114__rewrap_rangeB8ue170006IPKPdS3_EET_S4_T0_, symObjAddr: 0x5010, symBinAddr: 0x100006FA8, symSize: 0x2C }
  - { offsetInCU: 0xA67B, offset: 0xA67B, size: 0x8, addend: 0x0, symName: __ZNSt3__119__copy_trivial_implB8ue170006IKPdS1_EENS_4pairIPT_PT0_EES5_S5_S7_, symObjAddr: 0x503C, symBinAddr: 0x100006FD4, symSize: 0x80 }
  - { offsetInCU: 0xA6E3, offset: 0xA6E3, size: 0x8, addend: 0x0, symName: __ZNSt3__119__constexpr_memmoveB8ue170006IPdKS1_Li0EEEPT_S4_PT0_NS_15__element_countE, symObjAddr: 0x50BC, symBinAddr: 0x100007054, symSize: 0x64 }
  - { offsetInCU: 0xA751, offset: 0xA751, size: 0x8, addend: 0x0, symName: __ZNSt3__19make_pairB8ue170006IRPKPdPS1_EENS_4pairINS_18__unwrap_ref_decayIT_E4typeENS7_IT0_E4typeEEEOS8_OSB_, symObjAddr: 0x5120, symBinAddr: 0x1000070B8, symSize: 0x38 }
  - { offsetInCU: 0xA7A0, offset: 0xA7A0, size: 0x8, addend: 0x0, symName: __ZNSt3__113__rewrap_iterB8ue170006IPKPdS3_NS_18__unwrap_iter_implIS3_Lb1EEEEET_S6_T0_, symObjAddr: 0x5238, symBinAddr: 0x1000071D0, symSize: 0x3C }
  - { offsetInCU: 0xAD6E, offset: 0xAD6E, size: 0x8, addend: 0x0, symName: __ZSt28__throw_bad_array_new_lengthB8ue170006v, symObjAddr: 0x1E30, symBinAddr: 0x100003DC8, symSize: 0x34 }
  - { offsetInCU: 0xD81C, offset: 0xD81C, size: 0x8, addend: 0x0, symName: __Z10buildArrayPd, symObjAddr: 0x0, symBinAddr: 0x100001F98, symSize: 0x40 }
  - { offsetInCU: 0xD861, offset: 0xD861, size: 0x8, addend: 0x0, symName: _main, symObjAddr: 0x40, symBinAddr: 0x100001FD8, symSize: 0x2E8 }
  - { offsetInCU: 0xD8E5, offset: 0xD8E5, size: 0x8, addend: 0x0, symName: __ZNSt3__16vectorIiNS_9allocatorIiEEEC1B8ue170006ESt16initializer_listIiE, symObjAddr: 0x328, symBinAddr: 0x1000022C0, symSize: 0x3C }
  - { offsetInCU: 0xD920, offset: 0xD920, size: 0x8, addend: 0x0, symName: __ZNSt3__16vectorINS_7complexIdEENS_9allocatorIS2_EEEC1Em, symObjAddr: 0x364, symBinAddr: 0x1000022FC, symSize: 0x34 }
  - { offsetInCU: 0xD95B, offset: 0xD95B, size: 0x8, addend: 0x0, symName: __ZNSt3__16vectorINS_7complexIdEENS_9allocatorIS2_EEE4dataB8ue170006Ev, symObjAddr: 0x398, symBinAddr: 0x100002330, symSize: 0x28 }
  - { offsetInCU: 0xD981, offset: 0xD981, size: 0x8, addend: 0x0, symName: __ZNSt3__16vectorIPdNS_9allocatorIS1_EEEC1B8ue170006ESt16initializer_listIS1_E, symObjAddr: 0x3C0, symBinAddr: 0x100002358, symSize: 0x3C }
  - { offsetInCU: 0xD9BC, offset: 0xD9BC, size: 0x8, addend: 0x0, symName: __ZNSt3__16vectorIiNS_9allocatorIiEEEC1ERKS3_, symObjAddr: 0x3FC, symBinAddr: 0x100002394, symSize: 0x34 }
  - { offsetInCU: 0xDAE3, offset: 0xDAE3, size: 0x8, addend: 0x0, symName: __ZN11ConvolutionC1ESt16initializer_listIPvENSt3__16vectorIiNS3_9allocatorIiEEEE, symObjAddr: 0x430, symBinAddr: 0x1000023C8, symSize: 0x44 }
  - { offsetInCU: 0xDB2A, offset: 0xDB2A, size: 0x8, addend: 0x0, symName: __ZNSt3__16vectorIiNS_9allocatorIiEEED1B8ue170006Ev, symObjAddr: 0x474, symBinAddr: 0x10000240C, symSize: 0x2C }
  - { offsetInCU: 0xDB54, offset: 0xDB54, size: 0x8, addend: 0x0, symName: __ZN11ConvolutionD1Ev, symObjAddr: 0x4A0, symBinAddr: 0x100002438, symSize: 0x2C }
  - { offsetInCU: 0xDB80, offset: 0xDB80, size: 0x8, addend: 0x0, symName: __ZNSt3__16vectorIPdNS_9allocatorIS1_EEED1B8ue170006Ev, symObjAddr: 0x4CC, symBinAddr: 0x100002464, symSize: 0x2C }
  - { offsetInCU: 0xDBAA, offset: 0xDBAA, size: 0x8, addend: 0x0, symName: __ZNSt3__16vectorINS_7complexIdEENS_9allocatorIS2_EEED1B8ue170006Ev, symObjAddr: 0x4F8, symBinAddr: 0x100002490, symSize: 0x2C }
  - { offsetInCU: 0xDBD4, offset: 0xDBD4, size: 0x8, addend: 0x0, symName: __ZN11ConvolutionC2ESt16initializer_listIPvENSt3__16vectorIiNS3_9allocatorIiEEEE, symObjAddr: 0x524, symBinAddr: 0x1000024BC, symSize: 0xA8 }
  - { offsetInCU: 0xDC1B, offset: 0xDC1B, size: 0x8, addend: 0x0, symName: __ZN15LibraryXProblemC2Ev, symObjAddr: 0x5CC, symBinAddr: 0x100002564, symSize: 0x24 }
  - { offsetInCU: 0xDC45, offset: 0xDC45, size: 0x8, addend: 0x0, symName: __ZN11Convolution9semanticsEv, symObjAddr: 0x5F0, symBinAddr: 0x100002588, symSize: 0x15C }
  - { offsetInCU: 0xDC8D, offset: 0xDC8D, size: 0x8, addend: 0x0, symName: __ZNSt3__16vectorINS_7complexIdEENS_9allocatorIS2_EEEC1B8ue170006Ev, symObjAddr: 0x74C, symBinAddr: 0x1000026E4, symSize: 0x2C }
  - { offsetInCU: 0xDCB7, offset: 0xDCB7, size: 0x8, addend: 0x0, symName: __ZNKSt16initializer_listIPvE5beginB8ue170006Ev, symObjAddr: 0x778, symBinAddr: 0x100002710, symSize: 0x18 }
  - { offsetInCU: 0xDCDD, offset: 0xDCDD, size: 0x8, addend: 0x0, symName: __ZNKSt16initializer_listIPvE3endB8ue170006Ev, symObjAddr: 0x790, symBinAddr: 0x100002728, symSize: 0x20 }
  - { offsetInCU: 0xDD03, offset: 0xDD03, size: 0x8, addend: 0x0, symName: __ZNSt3__113basic_ostreamIcNS_11char_traitsIcEEElsB8ue170006EPFRS3_S4_E, symObjAddr: 0x7F8, symBinAddr: 0x100002790, symSize: 0x2C }
  - { offsetInCU: 0xDD37, offset: 0xDD37, size: 0x8, addend: 0x0, symName: __ZNSt3__16vectorINS_7complexIdEENS_9allocatorIS2_EEEC2B8ue170006Ev, symObjAddr: 0x87C, symBinAddr: 0x100002814, symSize: 0x4C }
  - { offsetInCU: 0xDD6B, offset: 0xDD6B, size: 0x8, addend: 0x0, symName: __ZNSt3__117__compressed_pairIPNS_7complexIdEENS_9allocatorIS2_EEEC1B8ue170006IDnNS_18__default_init_tagEEEOT_OT0_, symObjAddr: 0x8C8, symBinAddr: 0x100002860, symSize: 0x3C }
  - { offsetInCU: 0xDDC3, offset: 0xDDC3, size: 0x8, addend: 0x0, symName: __ZNSt3__117__compressed_pairIPNS_7complexIdEENS_9allocatorIS2_EEEC2B8ue170006IDnNS_18__default_init_tagEEEOT_OT0_, symObjAddr: 0x910, symBinAddr: 0x1000028A8, symSize: 0x40 }
  - { offsetInCU: 0xDE1B, offset: 0xDE1B, size: 0x8, addend: 0x0, symName: __ZNSt3__122__compressed_pair_elemIPNS_7complexIdEELi0ELb0EEC2B8ue170006IDnvEEOT_, symObjAddr: 0x950, symBinAddr: 0x1000028E8, symSize: 0x1C }
  - { offsetInCU: 0xDE5D, offset: 0xDE5D, size: 0x8, addend: 0x0, symName: __ZNSt3__122__compressed_pair_elemINS_9allocatorINS_7complexIdEEEELi1ELb1EEC2B8ue170006ENS_18__default_init_tagE, symObjAddr: 0x96C, symBinAddr: 0x100002904, symSize: 0x2C }
  - { offsetInCU: 0xDE92, offset: 0xDE92, size: 0x8, addend: 0x0, symName: __ZNSt3__19allocatorINS_7complexIdEEEC2B8ue170006Ev, symObjAddr: 0x998, symBinAddr: 0x100002930, symSize: 0x2C }
  - { offsetInCU: 0xDEBC, offset: 0xDEBC, size: 0x8, addend: 0x0, symName: __ZNSt3__116__non_trivial_ifILb1ENS_9allocatorINS_7complexIdEEEEEC2B8ue170006Ev, symObjAddr: 0x9C4, symBinAddr: 0x10000295C, symSize: 0x14 }
  - { offsetInCU: 0xDEE6, offset: 0xDEE6, size: 0x8, addend: 0x0, symName: __ZNSt3__111char_traitsIcE6lengthB8ue170006EPKc, symObjAddr: 0xBC4, symBinAddr: 0x100002B5C, symSize: 0x34 }
  - { offsetInCU: 0xDF27, offset: 0xDF27, size: 0x8, addend: 0x0, symName: __ZNKSt3__113basic_ostreamIcNS_11char_traitsIcEEE6sentrycvbB8ue170006Ev, symObjAddr: 0xBF8, symBinAddr: 0x100002B90, symSize: 0x1C }
  - { offsetInCU: 0xDF4D, offset: 0xDF4D, size: 0x8, addend: 0x0, symName: __ZNSt3__119ostreambuf_iteratorIcNS_11char_traitsIcEEEC1B8ue170006ERNS_13basic_ostreamIcS2_EE, symObjAddr: 0xE54, symBinAddr: 0x100002DEC, symSize: 0x34 }
  - { offsetInCU: 0xDF85, offset: 0xDF85, size: 0x8, addend: 0x0, symName: __ZNKSt3__18ios_base5flagsB8ue170006Ev, symObjAddr: 0xE88, symBinAddr: 0x100002E20, symSize: 0x18 }
  - { offsetInCU: 0xDFAD, offset: 0xDFAD, size: 0x8, addend: 0x0, symName: __ZNKSt3__19basic_iosIcNS_11char_traitsIcEEE4fillB8ue170006Ev, symObjAddr: 0xEA0, symBinAddr: 0x100002E38, symSize: 0x64 }
  - { offsetInCU: 0xDFD5, offset: 0xDFD5, size: 0x8, addend: 0x0, symName: __ZNKSt3__119ostreambuf_iteratorIcNS_11char_traitsIcEEE6failedB8ue170006Ev, symObjAddr: 0xF04, symBinAddr: 0x100002E9C, symSize: 0x24 }
  - { offsetInCU: 0xDFFB, offset: 0xDFFB, size: 0x8, addend: 0x0, symName: __ZNSt3__19basic_iosIcNS_11char_traitsIcEEE8setstateB8ue170006Ej, symObjAddr: 0xF28, symBinAddr: 0x100002EC0, symSize: 0x2C }
  - { offsetInCU: 0xE030, offset: 0xE030, size: 0x8, addend: 0x0, symName: __ZNKSt3__18ios_base5widthB8ue170006Ev, symObjAddr: 0xF54, symBinAddr: 0x100002EEC, symSize: 0x18 }
  - { offsetInCU: 0xE058, offset: 0xE058, size: 0x8, addend: 0x0, symName: __ZNSt3__115basic_streambufIcNS_11char_traitsIcEEE5sputnB8ue170006EPKcl, symObjAddr: 0xF6C, symBinAddr: 0x100002F04, symSize: 0x3C }
  - { offsetInCU: 0xE09A, offset: 0xE09A, size: 0x8, addend: 0x0, symName: __ZNSt3__112basic_stringIcNS_11char_traitsIcEENS_9allocatorIcEEEC1B8ue170006Emc, symObjAddr: 0xFA8, symBinAddr: 0x100002F40, symSize: 0x3C }
  - { offsetInCU: 0xE0E2, offset: 0xE0E2, size: 0x8, addend: 0x0, symName: __ZNSt3__112basic_stringIcNS_11char_traitsIcEENS_9allocatorIcEEE4dataB8ue170006Ev, symObjAddr: 0xFE4, symBinAddr: 0x100002F7C, symSize: 0x28 }
  - { offsetInCU: 0xE108, offset: 0xE108, size: 0x8, addend: 0x0, symName: __ZNSt3__18ios_base5widthB8ue170006El, symObjAddr: 0x100C, symBinAddr: 0x100002FA4, symSize: 0x2C }
  - { offsetInCU: 0xE14E, offset: 0xE14E, size: 0x8, addend: 0x0, symName: __ZNSt3__112basic_stringIcNS_11char_traitsIcEENS_9allocatorIcEEEC2B8ue170006Emc, symObjAddr: 0x1038, symBinAddr: 0x100002FD0, symSize: 0x4C }
  - { offsetInCU: 0xE196, offset: 0xE196, size: 0x8, addend: 0x0, symName: __ZNSt3__117__compressed_pairINS_12basic_stringIcNS_11char_traitsIcEENS_9allocatorIcEEE5__repES5_EC1B8ue170006INS_18__default_init_tagESA_EEOT_OT0_, symObjAddr: 0x1084, symBinAddr: 0x10000301C, symSize: 0x3C }
  - { offsetInCU: 0xE1EE, offset: 0xE1EE, size: 0x8, addend: 0x0, symName: __ZNSt3__117__compressed_pairINS_12basic_stringIcNS_11char_traitsIcEENS_9allocatorIcEEE5__repES5_EC2B8ue170006INS_18__default_init_tagESA_EEOT_OT0_, symObjAddr: 0x10C0, symBinAddr: 0x100003058, symSize: 0x3C }
  - { offsetInCU: 0xE246, offset: 0xE246, size: 0x8, addend: 0x0, symName: __ZNSt3__122__compressed_pair_elemINS_12basic_stringIcNS_11char_traitsIcEENS_9allocatorIcEEE5__repELi0ELb0EEC2B8ue170006ENS_18__default_init_tagE, symObjAddr: 0x10FC, symBinAddr: 0x100003094, symSize: 0x14 }
  - { offsetInCU: 0xE27B, offset: 0xE27B, size: 0x8, addend: 0x0, symName: __ZNSt3__122__compressed_pair_elemINS_9allocatorIcEELi1ELb1EEC2B8ue170006ENS_18__default_init_tagE, symObjAddr: 0x1110, symBinAddr: 0x1000030A8, symSize: 0x2C }
  - { offsetInCU: 0xE2B0, offset: 0xE2B0, size: 0x8, addend: 0x0, symName: __ZNSt3__19allocatorIcEC2B8ue170006Ev, symObjAddr: 0x113C, symBinAddr: 0x1000030D4, symSize: 0x2C }
  - { offsetInCU: 0xE2DA, offset: 0xE2DA, size: 0x8, addend: 0x0, symName: __ZNSt3__116__non_trivial_ifILb1ENS_9allocatorIcEEEC2B8ue170006Ev, symObjAddr: 0x1168, symBinAddr: 0x100003100, symSize: 0x14 }
  - { offsetInCU: 0xE304, offset: 0xE304, size: 0x8, addend: 0x0, symName: __ZNSt3__112basic_stringIcNS_11char_traitsIcEENS_9allocatorIcEEE13__get_pointerB8ue170006Ev, symObjAddr: 0x1190, symBinAddr: 0x100003128, symSize: 0x54 }
  - { offsetInCU: 0xE32A, offset: 0xE32A, size: 0x8, addend: 0x0, symName: __ZNKSt3__112basic_stringIcNS_11char_traitsIcEENS_9allocatorIcEEE9__is_longB8ue170006Ev, symObjAddr: 0x11E4, symBinAddr: 0x10000317C, symSize: 0x38 }
  - { offsetInCU: 0xE350, offset: 0xE350, size: 0x8, addend: 0x0, symName: __ZNSt3__112basic_stringIcNS_11char_traitsIcEENS_9allocatorIcEEE18__get_long_pointerB8ue170006Ev, symObjAddr: 0x121C, symBinAddr: 0x1000031B4, symSize: 0x28 }
  - { offsetInCU: 0xE376, offset: 0xE376, size: 0x8, addend: 0x0, symName: __ZNSt3__112basic_stringIcNS_11char_traitsIcEENS_9allocatorIcEEE19__get_short_pointerB8ue170006Ev, symObjAddr: 0x1244, symBinAddr: 0x1000031DC, symSize: 0x28 }
  - { offsetInCU: 0xE39C, offset: 0xE39C, size: 0x8, addend: 0x0, symName: __ZNKSt3__117__compressed_pairINS_12basic_stringIcNS_11char_traitsIcEENS_9allocatorIcEEE5__repES5_E5firstB8ue170006Ev, symObjAddr: 0x126C, symBinAddr: 0x100003204, symSize: 0x24 }
  - { offsetInCU: 0xE3C2, offset: 0xE3C2, size: 0x8, addend: 0x0, symName: __ZNKSt3__122__compressed_pair_elemINS_12basic_stringIcNS_11char_traitsIcEENS_9allocatorIcEEE5__repELi0ELb0EE5__getB8ue170006Ev, symObjAddr: 0x1290, symBinAddr: 0x100003228, symSize: 0x14 }
  - { offsetInCU: 0xE3E8, offset: 0xE3E8, size: 0x8, addend: 0x0, symName: __ZNSt3__117__compressed_pairINS_12basic_stringIcNS_11char_traitsIcEENS_9allocatorIcEEE5__repES5_E5firstB8ue170006Ev, symObjAddr: 0x12A4, symBinAddr: 0x10000323C, symSize: 0x24 }
  - { offsetInCU: 0xE40E, offset: 0xE40E, size: 0x8, addend: 0x0, symName: __ZNSt3__122__compressed_pair_elemINS_12basic_stringIcNS_11char_traitsIcEENS_9allocatorIcEEE5__repELi0ELb0EE5__getB8ue170006Ev, symObjAddr: 0x12C8, symBinAddr: 0x100003260, symSize: 0x14 }
  - { offsetInCU: 0xE434, offset: 0xE434, size: 0x8, addend: 0x0, symName: __ZNSt3__114pointer_traitsIPcE10pointer_toB8ue170006ERc, symObjAddr: 0x12DC, symBinAddr: 0x100003274, symSize: 0x14 }
  - { offsetInCU: 0xE457, offset: 0xE457, size: 0x8, addend: 0x0, symName: __ZNSt3__119ostreambuf_iteratorIcNS_11char_traitsIcEEEC2B8ue170006ERNS_13basic_ostreamIcS2_EE, symObjAddr: 0x12F0, symBinAddr: 0x100003288, symSize: 0x54 }
  - { offsetInCU: 0xE48F, offset: 0xE48F, size: 0x8, addend: 0x0, symName: __ZNKSt3__19basic_iosIcNS_11char_traitsIcEEE5rdbufB8ue170006Ev, symObjAddr: 0x1344, symBinAddr: 0x1000032DC, symSize: 0x24 }
  - { offsetInCU: 0xE4B7, offset: 0xE4B7, size: 0x8, addend: 0x0, symName: __ZNKSt3__18ios_base5rdbufB8ue170006Ev, symObjAddr: 0x1368, symBinAddr: 0x100003300, symSize: 0x18 }
  - { offsetInCU: 0xE4DD, offset: 0xE4DD, size: 0x8, addend: 0x0, symName: __ZNSt3__111char_traitsIcE11eq_int_typeB8ue170006Eii, symObjAddr: 0x1380, symBinAddr: 0x100003318, symSize: 0x28 }
  - { offsetInCU: 0xE510, offset: 0xE510, size: 0x8, addend: 0x0, symName: __ZNSt3__111char_traitsIcE3eofB8ue170006Ev, symObjAddr: 0x13A8, symBinAddr: 0x100003340, symSize: 0x8 }
  - { offsetInCU: 0xE524, offset: 0xE524, size: 0x8, addend: 0x0, symName: __ZNKSt3__19basic_iosIcNS_11char_traitsIcEEE5widenB8ue170006Ec, symObjAddr: 0x13B0, symBinAddr: 0x100003348, symSize: 0x84 }
  - { offsetInCU: 0xE58D, offset: 0xE58D, size: 0x8, addend: 0x0, symName: __ZNKSt3__15ctypeIcE5widenB8ue170006Ec, symObjAddr: 0x1460, symBinAddr: 0x1000033F8, symSize: 0x38 }
  - { offsetInCU: 0xE5C2, offset: 0xE5C2, size: 0x8, addend: 0x0, symName: __ZNSt3__18ios_base8setstateB8ue170006Ej, symObjAddr: 0x1498, symBinAddr: 0x100003430, symSize: 0x34 }
  - { offsetInCU: 0xE5F9, offset: 0xE5F9, size: 0x8, addend: 0x0, symName: __ZN11ConvolutionD2Ev, symObjAddr: 0x14F0, symBinAddr: 0x100003488, symSize: 0x40 }
  - { offsetInCU: 0xE625, offset: 0xE625, size: 0x8, addend: 0x0, symName: __ZNSt3__16vectorIiNS_9allocatorIiEEEC2ERKS3_, symObjAddr: 0x1530, symBinAddr: 0x1000034C8, symSize: 0x94 }
  - { offsetInCU: 0xE66A, offset: 0xE66A, size: 0x8, addend: 0x0, symName: __ZNSt3__116allocator_traitsINS_9allocatorIiEEE37select_on_container_copy_constructionB8ue170006IS2_vvEES2_RKS2_, symObjAddr: 0x15C4, symBinAddr: 0x10000355C, symSize: 0x10 }
  - { offsetInCU: 0xE699, offset: 0xE699, size: 0x8, addend: 0x0, symName: __ZNKSt3__16vectorIiNS_9allocatorIiEEE7__allocB8ue170006Ev, symObjAddr: 0x15D4, symBinAddr: 0x10000356C, symSize: 0x28 }
  - { offsetInCU: 0xE6C4, offset: 0xE6C4, size: 0x8, addend: 0x0, symName: __ZNSt3__117__compressed_pairIPiNS_9allocatorIiEEEC1B8ue170006IDnS3_EEOT_OT0_, symObjAddr: 0x15FC, symBinAddr: 0x100003594, symSize: 0x3C }
  - { offsetInCU: 0xE71C, offset: 0xE71C, size: 0x8, addend: 0x0, symName: __ZNSt3__16vectorIiNS_9allocatorIiEEE16__init_with_sizeB8ue170006IPiS5_EEvT_T0_m, symObjAddr: 0x1638, symBinAddr: 0x1000035D0, symSize: 0xB8 }
  - { offsetInCU: 0xE790, offset: 0xE790, size: 0x8, addend: 0x0, symName: __ZNKSt3__16vectorIiNS_9allocatorIiEEE4sizeB8ue170006Ev, symObjAddr: 0x16F0, symBinAddr: 0x100003688, symSize: 0x28 }
  - { offsetInCU: 0xE7B6, offset: 0xE7B6, size: 0x8, addend: 0x0, symName: __ZNKSt3__117__compressed_pairIPiNS_9allocatorIiEEE6secondB8ue170006Ev, symObjAddr: 0x1718, symBinAddr: 0x1000036B0, symSize: 0x24 }
  - { offsetInCU: 0xE7DC, offset: 0xE7DC, size: 0x8, addend: 0x0, symName: __ZNKSt3__122__compressed_pair_elemINS_9allocatorIiEELi1ELb1EE5__getB8ue170006Ev, symObjAddr: 0x173C, symBinAddr: 0x1000036D4, symSize: 0x14 }
  - { offsetInCU: 0xE802, offset: 0xE802, size: 0x8, addend: 0x0, symName: __ZNSt3__117__compressed_pairIPiNS_9allocatorIiEEEC2B8ue170006IDnS3_EEOT_OT0_, symObjAddr: 0x1750, symBinAddr: 0x1000036E8, symSize: 0x44 }
  - { offsetInCU: 0xE85A, offset: 0xE85A, size: 0x8, addend: 0x0, symName: __ZNSt3__122__compressed_pair_elemIPiLi0ELb0EEC2B8ue170006IDnvEEOT_, symObjAddr: 0x1794, symBinAddr: 0x10000372C, symSize: 0x1C }
  - { offsetInCU: 0xE89C, offset: 0xE89C, size: 0x8, addend: 0x0, symName: __ZNSt3__122__compressed_pair_elemINS_9allocatorIiEELi1ELb1EEC2B8ue170006IS2_vEEOT_, symObjAddr: 0x17B0, symBinAddr: 0x100003748, symSize: 0x18 }
  - { offsetInCU: 0xE8DE, offset: 0xE8DE, size: 0x8, addend: 0x0, symName: __ZNSt3__16vectorIiNS_9allocatorIiEEE16__destroy_vectorC1B8ue170006ERS3_, symObjAddr: 0x1808, symBinAddr: 0x1000037A0, symSize: 0x34 }
  - { offsetInCU: 0xE917, offset: 0xE917, size: 0x8, addend: 0x0, symName: __ZNSt3__16vectorIiNS_9allocatorIiEEE11__vallocateB8ue170006Em, symObjAddr: 0x183C, symBinAddr: 0x1000037D4, symSize: 0xAC }
  - { offsetInCU: 0xE95B, offset: 0xE95B, size: 0x8, addend: 0x0, symName: __ZNSt3__16vectorIiNS_9allocatorIiEEE18__construct_at_endIPiS5_EEvT_T0_m, symObjAddr: 0x18E8, symBinAddr: 0x100003880, symSize: 0x8C }
  - { offsetInCU: 0xE9D1, offset: 0xE9D1, size: 0x8, addend: 0x0, symName: __ZNSt3__128__exception_guard_exceptionsINS_6vectorIiNS_9allocatorIiEEE16__destroy_vectorEE10__completeB8ue170006Ev, symObjAddr: 0x1974, symBinAddr: 0x10000390C, symSize: 0x1C }
  - { offsetInCU: 0xE9F7, offset: 0xE9F7, size: 0x8, addend: 0x0, symName: __ZNSt3__128__exception_guard_exceptionsINS_6vectorIiNS_9allocatorIiEEE16__destroy_vectorEED1B8ue170006Ev, symObjAddr: 0x1990, symBinAddr: 0x100003928, symSize: 0x2C }
  - { offsetInCU: 0xEA21, offset: 0xEA21, size: 0x8, addend: 0x0, symName: __ZNSt3__128__exception_guard_exceptionsINS_6vectorIiNS_9allocatorIiEEE16__destroy_vectorEEC1B8ue170006ES5_, symObjAddr: 0x19BC, symBinAddr: 0x100003954, symSize: 0x34 }
  - { offsetInCU: 0xEA59, offset: 0xEA59, size: 0x8, addend: 0x0, symName: __ZNSt3__128__exception_guard_exceptionsINS_6vectorIiNS_9allocatorIiEEE16__destroy_vectorEEC2B8ue170006ES5_, symObjAddr: 0x19F0, symBinAddr: 0x100003988, symSize: 0x24 }
  - { offsetInCU: 0xEA91, offset: 0xEA91, size: 0x8, addend: 0x0, symName: __ZNSt3__16vectorIiNS_9allocatorIiEEE16__destroy_vectorC2B8ue170006ERS3_, symObjAddr: 0x1A14, symBinAddr: 0x1000039AC, symSize: 0x20 }
  - { offsetInCU: 0xEACA, offset: 0xEACA, size: 0x8, addend: 0x0, symName: __ZNKSt3__16vectorIiNS_9allocatorIiEEE8max_sizeEv, symObjAddr: 0x1A34, symBinAddr: 0x1000039CC, symSize: 0x60 }
  - { offsetInCU: 0xEAF2, offset: 0xEAF2, size: 0x8, addend: 0x0, symName: __ZNKSt3__16vectorIiNS_9allocatorIiEEE20__throw_length_errorB8ue170006Ev, symObjAddr: 0x1A94, symBinAddr: 0x100003A2C, symSize: 0x1C }
  - { offsetInCU: 0xEB18, offset: 0xEB18, size: 0x8, addend: 0x0, symName: __ZNSt3__16vectorIiNS_9allocatorIiEEE7__allocB8ue170006Ev, symObjAddr: 0x1AF0, symBinAddr: 0x100003A88, symSize: 0x28 }
  - { offsetInCU: 0xEB3E, offset: 0xEB3E, size: 0x8, addend: 0x0, symName: __ZNSt3__16vectorIiNS_9allocatorIiEEE9__end_capB8ue170006Ev, symObjAddr: 0x1B18, symBinAddr: 0x100003AB0, symSize: 0x28 }
  - { offsetInCU: 0xEB64, offset: 0xEB64, size: 0x8, addend: 0x0, symName: __ZNKSt3__16vectorIiNS_9allocatorIiEEE14__annotate_newB8ue170006Em, symObjAddr: 0x1B40, symBinAddr: 0x100003AD8, symSize: 0xAC }
  - { offsetInCU: 0xEB99, offset: 0xEB99, size: 0x8, addend: 0x0, symName: __ZNSt3__116allocator_traitsINS_9allocatorIiEEE8max_sizeB8ue170006IS2_vEEmRKS2_, symObjAddr: 0x1C18, symBinAddr: 0x100003BB0, symSize: 0x24 }
  - { offsetInCU: 0xEBC7, offset: 0xEBC7, size: 0x8, addend: 0x0, symName: __ZNSt3__114numeric_limitsIlE3maxB8ue170006Ev, symObjAddr: 0x1C3C, symBinAddr: 0x100003BD4, symSize: 0x14 }
  - { offsetInCU: 0xEBEF, offset: 0xEBEF, size: 0x8, addend: 0x0, symName: __ZNKSt3__16__lessIvvEclB8ue170006ImmEEbRKT_RKT0_, symObjAddr: 0x1CA4, symBinAddr: 0x100003C3C, symSize: 0x34 }
  - { offsetInCU: 0xEC43, offset: 0xEC43, size: 0x8, addend: 0x0, symName: __ZNKSt3__19allocatorIiE8max_sizeB8ue170006Ev, symObjAddr: 0x1CD8, symBinAddr: 0x100003C70, symSize: 0x14 }
  - { offsetInCU: 0xEC69, offset: 0xEC69, size: 0x8, addend: 0x0, symName: __ZNSt3__123__libcpp_numeric_limitsIlLb1EE3maxB8ue170006Ev, symObjAddr: 0x1CEC, symBinAddr: 0x100003C84, symSize: 0x8 }
  - { offsetInCU: 0xEC7D, offset: 0xEC7D, size: 0x8, addend: 0x0, symName: __ZNSt12length_errorC1B8ue170006EPKc, symObjAddr: 0x1D58, symBinAddr: 0x100003CF0, symSize: 0x34 }
  - { offsetInCU: 0xECB5, offset: 0xECB5, size: 0x8, addend: 0x0, symName: __ZNSt12length_errorC2B8ue170006EPKc, symObjAddr: 0x1D8C, symBinAddr: 0x100003D24, symSize: 0x4C }
  - { offsetInCU: 0xECED, offset: 0xECED, size: 0x8, addend: 0x0, symName: __ZNSt3__19allocatorIiE8allocateB8ue170006Em, symObjAddr: 0x1DD8, symBinAddr: 0x100003D70, symSize: 0x58 }
  - { offsetInCU: 0xED21, offset: 0xED21, size: 0x8, addend: 0x0, symName: __ZNSt3__117__compressed_pairIPiNS_9allocatorIiEEE6secondB8ue170006Ev, symObjAddr: 0x1F34, symBinAddr: 0x100003ECC, symSize: 0x24 }
  - { offsetInCU: 0xED47, offset: 0xED47, size: 0x8, addend: 0x0, symName: __ZNSt3__122__compressed_pair_elemINS_9allocatorIiEELi1ELb1EE5__getB8ue170006Ev, symObjAddr: 0x1F58, symBinAddr: 0x100003EF0, symSize: 0x14 }
  - { offsetInCU: 0xED6D, offset: 0xED6D, size: 0x8, addend: 0x0, symName: __ZNSt3__117__compressed_pairIPiNS_9allocatorIiEEE5firstB8ue170006Ev, symObjAddr: 0x1F6C, symBinAddr: 0x100003F04, symSize: 0x24 }
  - { offsetInCU: 0xED93, offset: 0xED93, size: 0x8, addend: 0x0, symName: __ZNSt3__122__compressed_pair_elemIPiLi0ELb0EE5__getB8ue170006Ev, symObjAddr: 0x1F90, symBinAddr: 0x100003F28, symSize: 0x14 }
  - { offsetInCU: 0xEDB9, offset: 0xEDB9, size: 0x8, addend: 0x0, symName: __ZNKSt3__16vectorIiNS_9allocatorIiEEE31__annotate_contiguous_containerB8ue170006EPKvS5_S5_S5_, symObjAddr: 0x1FA4, symBinAddr: 0x100003F3C, symSize: 0x20 }
  - { offsetInCU: 0xEE0B, offset: 0xEE0B, size: 0x8, addend: 0x0, symName: __ZNKSt3__16vectorIiNS_9allocatorIiEEE4dataB8ue170006Ev, symObjAddr: 0x1FC4, symBinAddr: 0x100003F5C, symSize: 0x28 }
  - { offsetInCU: 0xEE31, offset: 0xEE31, size: 0x8, addend: 0x0, symName: __ZNKSt3__16vectorIiNS_9allocatorIiEEE8capacityB8ue170006Ev, symObjAddr: 0x1FEC, symBinAddr: 0x100003F84, symSize: 0x40 }
  - { offsetInCU: 0xEE57, offset: 0xEE57, size: 0x8, addend: 0x0, symName: __ZNKSt3__16vectorIiNS_9allocatorIiEEE9__end_capB8ue170006Ev, symObjAddr: 0x2040, symBinAddr: 0x100003FD8, symSize: 0x28 }
  - { offsetInCU: 0xEE7D, offset: 0xEE7D, size: 0x8, addend: 0x0, symName: __ZNKSt3__117__compressed_pairIPiNS_9allocatorIiEEE5firstB8ue170006Ev, symObjAddr: 0x2068, symBinAddr: 0x100004000, symSize: 0x24 }
  - { offsetInCU: 0xEEA3, offset: 0xEEA3, size: 0x8, addend: 0x0, symName: __ZNKSt3__122__compressed_pair_elemIPiLi0ELb0EE5__getB8ue170006Ev, symObjAddr: 0x208C, symBinAddr: 0x100004024, symSize: 0x14 }
  - { offsetInCU: 0xEEE2, offset: 0xEEE2, size: 0x8, addend: 0x0, symName: __ZNSt3__16vectorIiNS_9allocatorIiEEE21_ConstructTransactionC1B8ue170006ERS3_m, symObjAddr: 0x20A0, symBinAddr: 0x100004038, symSize: 0x3C }
  - { offsetInCU: 0xEF2A, offset: 0xEF2A, size: 0x8, addend: 0x0, symName: __ZNSt3__16vectorIiNS_9allocatorIiEEE21_ConstructTransactionD1B8ue170006Ev, symObjAddr: 0x215C, symBinAddr: 0x1000040F4, symSize: 0x2C }
  - { offsetInCU: 0xEF54, offset: 0xEF54, size: 0x8, addend: 0x0, symName: __ZNSt3__16vectorIiNS_9allocatorIiEEE21_ConstructTransactionC2B8ue170006ERS3_m, symObjAddr: 0x2188, symBinAddr: 0x100004120, symSize: 0x44 }
  - { offsetInCU: 0xEFBA, offset: 0xEFBA, size: 0x8, addend: 0x0, symName: __ZNSt3__14pairIPiS1_EC1B8ue170006IS1_S1_LPv0EEEOT_OT0_, symObjAddr: 0x22FC, symBinAddr: 0x100004294, symSize: 0x3C }
  - { offsetInCU: 0xF018, offset: 0xF018, size: 0x8, addend: 0x0, symName: __ZNSt3__14pairIPiS1_EC2B8ue170006IS1_S1_LPv0EEEOT_OT0_, symObjAddr: 0x2338, symBinAddr: 0x1000042D0, symSize: 0x34 }
  - { offsetInCU: 0xF080, offset: 0xF080, size: 0x8, addend: 0x0, symName: __ZNKSt3__114__copy_trivialclB8ue170006IiiLi0EEENS_4pairIPT_PT0_EES4_S4_S6_, symObjAddr: 0x24E8, symBinAddr: 0x100004480, symSize: 0x48 }
  - { offsetInCU: 0xF0E8, offset: 0xF0E8, size: 0x8, addend: 0x0, symName: __ZNSt3__14pairIPiS1_EC1B8ue170006IRS1_S1_LPv0EEEOT_OT0_, symObjAddr: 0x2678, symBinAddr: 0x100004610, symSize: 0x3C }
  - { offsetInCU: 0xF146, offset: 0xF146, size: 0x8, addend: 0x0, symName: __ZNSt3__14pairIPiS1_EC2B8ue170006IRS1_S1_LPv0EEEOT_OT0_, symObjAddr: 0x26B4, symBinAddr: 0x10000464C, symSize: 0x34 }
  - { offsetInCU: 0xF1A4, offset: 0xF1A4, size: 0x8, addend: 0x0, symName: __ZNSt3__118__unwrap_iter_implIPiLb1EE8__unwrapB8ue170006ES1_, symObjAddr: 0x26E8, symBinAddr: 0x100004680, symSize: 0x24 }
  - { offsetInCU: 0xF1C7, offset: 0xF1C7, size: 0x8, addend: 0x0, symName: __ZNSt3__118__unwrap_iter_implIPiLb1EE8__rewrapB8ue170006ES1_S1_, symObjAddr: 0x270C, symBinAddr: 0x1000046A4, symSize: 0x50 }
  - { offsetInCU: 0xF1F8, offset: 0xF1F8, size: 0x8, addend: 0x0, symName: __ZNSt3__16vectorIiNS_9allocatorIiEEE21_ConstructTransactionD2B8ue170006Ev, symObjAddr: 0x275C, symBinAddr: 0x1000046F4, symSize: 0x20 }
  - { offsetInCU: 0xF222, offset: 0xF222, size: 0x8, addend: 0x0, symName: __ZNSt3__128__exception_guard_exceptionsINS_6vectorIiNS_9allocatorIiEEE16__destroy_vectorEED2B8ue170006Ev, symObjAddr: 0x277C, symBinAddr: 0x100004714, symSize: 0x50 }
  - { offsetInCU: 0xF24C, offset: 0xF24C, size: 0x8, addend: 0x0, symName: __ZNSt3__16vectorIiNS_9allocatorIiEEE16__destroy_vectorclB8ue170006Ev, symObjAddr: 0x27CC, symBinAddr: 0x100004764, symSize: 0x90 }
  - { offsetInCU: 0xF272, offset: 0xF272, size: 0x8, addend: 0x0, symName: __ZNSt3__16vectorIiNS_9allocatorIiEEE7__clearB8ue170006Ev, symObjAddr: 0x285C, symBinAddr: 0x1000047F4, symSize: 0x28 }
  - { offsetInCU: 0xF298, offset: 0xF298, size: 0x8, addend: 0x0, symName: __ZNKSt3__16vectorIiNS_9allocatorIiEEE17__annotate_deleteB8ue170006Ev, symObjAddr: 0x2884, symBinAddr: 0x10000481C, symSize: 0xB8 }
  - { offsetInCU: 0xF2BE, offset: 0xF2BE, size: 0x8, addend: 0x0, symName: __ZNSt3__116allocator_traitsINS_9allocatorIiEEE10deallocateB8ue170006ERS2_Pim, symObjAddr: 0x293C, symBinAddr: 0x1000048D4, symSize: 0x34 }
  - { offsetInCU: 0xF300, offset: 0xF300, size: 0x8, addend: 0x0, symName: __ZNSt3__16vectorIiNS_9allocatorIiEEE22__base_destruct_at_endB8ue170006EPi, symObjAddr: 0x2970, symBinAddr: 0x100004908, symSize: 0x8C }
  - { offsetInCU: 0xF344, offset: 0xF344, size: 0x8, addend: 0x0, symName: __ZNSt3__116allocator_traitsINS_9allocatorIiEEE7destroyB8ue170006IivEEvRS2_PT_, symObjAddr: 0x29FC, symBinAddr: 0x100004994, symSize: 0x2C }
  - { offsetInCU: 0xF381, offset: 0xF381, size: 0x8, addend: 0x0, symName: __ZNSt3__19allocatorIiE7destroyB8ue170006EPi, symObjAddr: 0x2A28, symBinAddr: 0x1000049C0, symSize: 0x14 }
  - { offsetInCU: 0xF3B5, offset: 0xF3B5, size: 0x8, addend: 0x0, symName: __ZNSt3__19allocatorIiE10deallocateB8ue170006EPim, symObjAddr: 0x2A3C, symBinAddr: 0x1000049D4, symSize: 0x40 }
  - { offsetInCU: 0xF3F7, offset: 0xF3F7, size: 0x8, addend: 0x0, symName: __ZNSt3__16vectorIiNS_9allocatorIiEEED2B8ue170006Ev, symObjAddr: 0x2B84, symBinAddr: 0x100004B1C, symSize: 0x40 }
  - { offsetInCU: 0xF421, offset: 0xF421, size: 0x8, addend: 0x0, symName: __ZNSt3__16vectorINS_7complexIdEENS_9allocatorIS2_EEED2B8ue170006Ev, symObjAddr: 0x2BC4, symBinAddr: 0x100004B5C, symSize: 0x44 }
  - { offsetInCU: 0xF44B, offset: 0xF44B, size: 0x8, addend: 0x0, symName: __ZNSt3__16vectorINS_7complexIdEENS_9allocatorIS2_EEE16__destroy_vectorC1B8ue170006ERS5_, symObjAddr: 0x2C08, symBinAddr: 0x100004BA0, symSize: 0x34 }
  - { offsetInCU: 0xF484, offset: 0xF484, size: 0x8, addend: 0x0, symName: __ZNSt3__16vectorINS_7complexIdEENS_9allocatorIS2_EEE16__destroy_vectorclB8ue170006Ev, symObjAddr: 0x2C3C, symBinAddr: 0x100004BD4, symSize: 0x90 }
  - { offsetInCU: 0xF4AA, offset: 0xF4AA, size: 0x8, addend: 0x0, symName: __ZNSt3__16vectorINS_7complexIdEENS_9allocatorIS2_EEE16__destroy_vectorC2B8ue170006ERS5_, symObjAddr: 0x2CCC, symBinAddr: 0x100004C64, symSize: 0x20 }
  - { offsetInCU: 0xF4E3, offset: 0xF4E3, size: 0x8, addend: 0x0, symName: __ZNSt3__16vectorINS_7complexIdEENS_9allocatorIS2_EEE7__clearB8ue170006Ev, symObjAddr: 0x2CEC, symBinAddr: 0x100004C84, symSize: 0x28 }
  - { offsetInCU: 0xF509, offset: 0xF509, size: 0x8, addend: 0x0, symName: __ZNKSt3__16vectorINS_7complexIdEENS_9allocatorIS2_EEE17__annotate_deleteB8ue170006Ev, symObjAddr: 0x2D14, symBinAddr: 0x100004CAC, symSize: 0xB8 }
  - { offsetInCU: 0xF52F, offset: 0xF52F, size: 0x8, addend: 0x0, symName: __ZNSt3__116allocator_traitsINS_9allocatorINS_7complexIdEEEEE10deallocateB8ue170006ERS4_PS3_m, symObjAddr: 0x2DCC, symBinAddr: 0x100004D64, symSize: 0x34 }
  - { offsetInCU: 0xF571, offset: 0xF571, size: 0x8, addend: 0x0, symName: __ZNSt3__16vectorINS_7complexIdEENS_9allocatorIS2_EEE7__allocB8ue170006Ev, symObjAddr: 0x2E00, symBinAddr: 0x100004D98, symSize: 0x28 }
  - { offsetInCU: 0xF597, offset: 0xF597, size: 0x8, addend: 0x0, symName: __ZNKSt3__16vectorINS_7complexIdEENS_9allocatorIS2_EEE8capacityB8ue170006Ev, symObjAddr: 0x2E28, symBinAddr: 0x100004DC0, symSize: 0x40 }
  - { offsetInCU: 0xF5BD, offset: 0xF5BD, size: 0x8, addend: 0x0, symName: __ZNSt3__16vectorINS_7complexIdEENS_9allocatorIS2_EEE22__base_destruct_at_endB8ue170006EPS2_, symObjAddr: 0x2E68, symBinAddr: 0x100004E00, symSize: 0x8C }
  - { offsetInCU: 0xF601, offset: 0xF601, size: 0x8, addend: 0x0, symName: __ZNSt3__116allocator_traitsINS_9allocatorINS_7complexIdEEEEE7destroyB8ue170006IS3_vEEvRS4_PT_, symObjAddr: 0x2EF4, symBinAddr: 0x100004E8C, symSize: 0x2C }
  - { offsetInCU: 0xF63E, offset: 0xF63E, size: 0x8, addend: 0x0, symName: __ZNSt3__19allocatorINS_7complexIdEEE7destroyB8ue170006EPS2_, symObjAddr: 0x2F34, symBinAddr: 0x100004ECC, symSize: 0x14 }
  - { offsetInCU: 0xF672, offset: 0xF672, size: 0x8, addend: 0x0, symName: __ZNKSt3__16vectorINS_7complexIdEENS_9allocatorIS2_EEE31__annotate_contiguous_containerB8ue170006EPKvS7_S7_S7_, symObjAddr: 0x2F48, symBinAddr: 0x100004EE0, symSize: 0x20 }
  - { offsetInCU: 0xF6C4, offset: 0xF6C4, size: 0x8, addend: 0x0, symName: __ZNKSt3__16vectorINS_7complexIdEENS_9allocatorIS2_EEE4dataB8ue170006Ev, symObjAddr: 0x2F68, symBinAddr: 0x100004F00, symSize: 0x28 }
  - { offsetInCU: 0xF6EA, offset: 0xF6EA, size: 0x8, addend: 0x0, symName: __ZNKSt3__16vectorINS_7complexIdEENS_9allocatorIS2_EEE4sizeB8ue170006Ev, symObjAddr: 0x2F90, symBinAddr: 0x100004F28, symSize: 0x28 }
  - { offsetInCU: 0xF710, offset: 0xF710, size: 0x8, addend: 0x0, symName: __ZNSt3__19allocatorINS_7complexIdEEE10deallocateB8ue170006EPS2_m, symObjAddr: 0x2FB8, symBinAddr: 0x100004F50, symSize: 0x40 }
  - { offsetInCU: 0xF752, offset: 0xF752, size: 0x8, addend: 0x0, symName: __ZNSt3__117__compressed_pairIPNS_7complexIdEENS_9allocatorIS2_EEE6secondB8ue170006Ev, symObjAddr: 0x2FF8, symBinAddr: 0x100004F90, symSize: 0x24 }
  - { offsetInCU: 0xF778, offset: 0xF778, size: 0x8, addend: 0x0, symName: __ZNSt3__122__compressed_pair_elemINS_9allocatorINS_7complexIdEEEELi1ELb1EE5__getB8ue170006Ev, symObjAddr: 0x301C, symBinAddr: 0x100004FB4, symSize: 0x14 }
  - { offsetInCU: 0xF79E, offset: 0xF79E, size: 0x8, addend: 0x0, symName: __ZNKSt3__16vectorINS_7complexIdEENS_9allocatorIS2_EEE9__end_capB8ue170006Ev, symObjAddr: 0x3030, symBinAddr: 0x100004FC8, symSize: 0x28 }
  - { offsetInCU: 0xF7C4, offset: 0xF7C4, size: 0x8, addend: 0x0, symName: __ZNKSt3__117__compressed_pairIPNS_7complexIdEENS_9allocatorIS2_EEE5firstB8ue170006Ev, symObjAddr: 0x3058, symBinAddr: 0x100004FF0, symSize: 0x24 }
  - { offsetInCU: 0xF7EA, offset: 0xF7EA, size: 0x8, addend: 0x0, symName: __ZNKSt3__122__compressed_pair_elemIPNS_7complexIdEELi0ELb0EE5__getB8ue170006Ev, symObjAddr: 0x307C, symBinAddr: 0x100005014, symSize: 0x14 }
  - { offsetInCU: 0xF810, offset: 0xF810, size: 0x8, addend: 0x0, symName: __ZNSt3__16vectorIiNS_9allocatorIiEEEC2B8ue170006ESt16initializer_listIiE, symObjAddr: 0x3090, symBinAddr: 0x100005028, symSize: 0x120 }
  - { offsetInCU: 0xF860, offset: 0xF860, size: 0x8, addend: 0x0, symName: __ZNSt3__117__compressed_pairIPiNS_9allocatorIiEEEC1B8ue170006IDnNS_18__default_init_tagEEEOT_OT0_, symObjAddr: 0x31B0, symBinAddr: 0x100005148, symSize: 0x3C }
  - { offsetInCU: 0xF8B8, offset: 0xF8B8, size: 0x8, addend: 0x0, symName: __ZNKSt16initializer_listIiE4sizeB8ue170006Ev, symObjAddr: 0x31EC, symBinAddr: 0x100005184, symSize: 0x18 }
  - { offsetInCU: 0xF8DE, offset: 0xF8DE, size: 0x8, addend: 0x0, symName: __ZNSt3__16vectorIiNS_9allocatorIiEEE18__construct_at_endIPKiS6_EEvT_T0_m, symObjAddr: 0x3204, symBinAddr: 0x10000519C, symSize: 0x8C }
  - { offsetInCU: 0xF954, offset: 0xF954, size: 0x8, addend: 0x0, symName: __ZNKSt16initializer_listIiE5beginB8ue170006Ev, symObjAddr: 0x3290, symBinAddr: 0x100005228, symSize: 0x18 }
  - { offsetInCU: 0xF97A, offset: 0xF97A, size: 0x8, addend: 0x0, symName: __ZNKSt16initializer_listIiE3endB8ue170006Ev, symObjAddr: 0x32A8, symBinAddr: 0x100005240, symSize: 0x20 }
  - { offsetInCU: 0xF9A0, offset: 0xF9A0, size: 0x8, addend: 0x0, symName: __ZNSt3__117__compressed_pairIPiNS_9allocatorIiEEEC2B8ue170006IDnNS_18__default_init_tagEEEOT_OT0_, symObjAddr: 0x32C8, symBinAddr: 0x100005260, symSize: 0x40 }
  - { offsetInCU: 0xF9F8, offset: 0xF9F8, size: 0x8, addend: 0x0, symName: __ZNSt3__122__compressed_pair_elemINS_9allocatorIiEELi1ELb1EEC2B8ue170006ENS_18__default_init_tagE, symObjAddr: 0x3308, symBinAddr: 0x1000052A0, symSize: 0x2C }
  - { offsetInCU: 0xFA2D, offset: 0xFA2D, size: 0x8, addend: 0x0, symName: __ZNSt3__19allocatorIiEC2B8ue170006Ev, symObjAddr: 0x3334, symBinAddr: 0x1000052CC, symSize: 0x2C }
  - { offsetInCU: 0xFA57, offset: 0xFA57, size: 0x8, addend: 0x0, symName: __ZNSt3__116__non_trivial_ifILb1ENS_9allocatorIiEEEC2B8ue170006Ev, symObjAddr: 0x3360, symBinAddr: 0x1000052F8, symSize: 0x14 }
  - { offsetInCU: 0xFA9F, offset: 0xFA9F, size: 0x8, addend: 0x0, symName: __ZNSt3__14pairIPKiS2_EC1B8ue170006IS2_S2_LPv0EEEOT_OT0_, symObjAddr: 0x34E8, symBinAddr: 0x100005480, symSize: 0x3C }
  - { offsetInCU: 0xFAFD, offset: 0xFAFD, size: 0x8, addend: 0x0, symName: __ZNSt3__14pairIPKiS2_EC2B8ue170006IS2_S2_LPv0EEEOT_OT0_, symObjAddr: 0x3524, symBinAddr: 0x1000054BC, symSize: 0x34 }
  - { offsetInCU: 0xFB5B, offset: 0xFB5B, size: 0x8, addend: 0x0, symName: __ZNSt3__118__unwrap_iter_implIPKiLb1EE8__unwrapB8ue170006ES2_, symObjAddr: 0x3558, symBinAddr: 0x1000054F0, symSize: 0x24 }
  - { offsetInCU: 0xFB97, offset: 0xFB97, size: 0x8, addend: 0x0, symName: __ZNKSt3__114__copy_trivialclB8ue170006IKiiLi0EEENS_4pairIPT_PT0_EES5_S5_S7_, symObjAddr: 0x370C, symBinAddr: 0x1000056A4, symSize: 0x48 }
  - { offsetInCU: 0xFC04, offset: 0xFC04, size: 0x8, addend: 0x0, symName: __ZNSt3__14pairIPKiPiEC1B8ue170006IRS2_S3_LPv0EEEOT_OT0_, symObjAddr: 0x38D4, symBinAddr: 0x10000586C, symSize: 0x3C }
  - { offsetInCU: 0xFC62, offset: 0xFC62, size: 0x8, addend: 0x0, symName: __ZNSt3__14pairIPKiPiEC2B8ue170006IRS2_S3_LPv0EEEOT_OT0_, symObjAddr: 0x3910, symBinAddr: 0x1000058A8, symSize: 0x34 }
  - { offsetInCU: 0xFCC0, offset: 0xFCC0, size: 0x8, addend: 0x0, symName: __ZNSt3__14pairIPKiPiEC1B8ue170006IS2_S3_LPv0EEEOT_OT0_, symObjAddr: 0x3944, symBinAddr: 0x1000058DC, symSize: 0x3C }
  - { offsetInCU: 0xFD1E, offset: 0xFD1E, size: 0x8, addend: 0x0, symName: __ZNSt3__14pairIPKiPiEC2B8ue170006IS2_S3_LPv0EEEOT_OT0_, symObjAddr: 0x3980, symBinAddr: 0x100005918, symSize: 0x34 }
  - { offsetInCU: 0xFD7C, offset: 0xFD7C, size: 0x8, addend: 0x0, symName: __ZNSt3__118__unwrap_iter_implIPKiLb1EE8__rewrapB8ue170006ES2_S2_, symObjAddr: 0x39F0, symBinAddr: 0x100005988, symSize: 0x50 }
  - { offsetInCU: 0xFDAD, offset: 0xFDAD, size: 0x8, addend: 0x0, symName: __ZNSt3__16vectorINS_7complexIdEENS_9allocatorIS2_EEEC2Em, symObjAddr: 0x3A40, symBinAddr: 0x1000059D8, symSize: 0xD4 }
  - { offsetInCU: 0xFDFD, offset: 0xFDFD, size: 0x8, addend: 0x0, symName: __ZNSt3__16vectorINS_7complexIdEENS_9allocatorIS2_EEE11__vallocateB8ue170006Em, symObjAddr: 0x3B54, symBinAddr: 0x100005AEC, symSize: 0xAC }
  - { offsetInCU: 0xFE41, offset: 0xFE41, size: 0x8, addend: 0x0, symName: __ZNSt3__16vectorINS_7complexIdEENS_9allocatorIS2_EEE18__construct_at_endEm, symObjAddr: 0x3C00, symBinAddr: 0x100005B98, symSize: 0xC8 }
  - { offsetInCU: 0xFEB3, offset: 0xFEB3, size: 0x8, addend: 0x0, symName: __ZNSt3__128__exception_guard_exceptionsINS_6vectorINS_7complexIdEENS_9allocatorIS3_EEE16__destroy_vectorEE10__completeB8ue170006Ev, symObjAddr: 0x3CC8, symBinAddr: 0x100005C60, symSize: 0x1C }
  - { offsetInCU: 0xFED9, offset: 0xFED9, size: 0x8, addend: 0x0, symName: __ZNSt3__128__exception_guard_exceptionsINS_6vectorINS_7complexIdEENS_9allocatorIS3_EEE16__destroy_vectorEED1B8ue170006Ev, symObjAddr: 0x3CE4, symBinAddr: 0x100005C7C, symSize: 0x2C }
  - { offsetInCU: 0xFF03, offset: 0xFF03, size: 0x8, addend: 0x0, symName: __ZNSt3__128__exception_guard_exceptionsINS_6vectorINS_7complexIdEENS_9allocatorIS3_EEE16__destroy_vectorEEC1B8ue170006ES7_, symObjAddr: 0x3D10, symBinAddr: 0x100005CA8, symSize: 0x34 }
  - { offsetInCU: 0xFF3B, offset: 0xFF3B, size: 0x8, addend: 0x0, symName: __ZNSt3__128__exception_guard_exceptionsINS_6vectorINS_7complexIdEENS_9allocatorIS3_EEE16__destroy_vectorEEC2B8ue170006ES7_, symObjAddr: 0x3D44, symBinAddr: 0x100005CDC, symSize: 0x24 }
  - { offsetInCU: 0xFF73, offset: 0xFF73, size: 0x8, addend: 0x0, symName: __ZNKSt3__16vectorINS_7complexIdEENS_9allocatorIS2_EEE8max_sizeEv, symObjAddr: 0x3D68, symBinAddr: 0x100005D00, symSize: 0x60 }
  - { offsetInCU: 0xFF9B, offset: 0xFF9B, size: 0x8, addend: 0x0, symName: __ZNKSt3__16vectorINS_7complexIdEENS_9allocatorIS2_EEE20__throw_length_errorB8ue170006Ev, symObjAddr: 0x3DC8, symBinAddr: 0x100005D60, symSize: 0x1C }
  - { offsetInCU: 0xFFC1, offset: 0xFFC1, size: 0x8, addend: 0x0, symName: __ZNSt3__16vectorINS_7complexIdEENS_9allocatorIS2_EEE9__end_capB8ue170006Ev, symObjAddr: 0x3E24, symBinAddr: 0x100005DBC, symSize: 0x28 }
  - { offsetInCU: 0xFFE7, offset: 0xFFE7, size: 0x8, addend: 0x0, symName: __ZNKSt3__16vectorINS_7complexIdEENS_9allocatorIS2_EEE14__annotate_newB8ue170006Em, symObjAddr: 0x3E4C, symBinAddr: 0x100005DE4, symSize: 0xAC }
  - { offsetInCU: 0x10026, offset: 0x10026, size: 0x8, addend: 0x0, symName: __ZNSt3__116allocator_traitsINS_9allocatorINS_7complexIdEEEEE8max_sizeB8ue170006IS4_vEEmRKS4_, symObjAddr: 0x3EF8, symBinAddr: 0x100005E90, symSize: 0x24 }
  - { offsetInCU: 0x10054, offset: 0x10054, size: 0x8, addend: 0x0, symName: __ZNKSt3__16vectorINS_7complexIdEENS_9allocatorIS2_EEE7__allocB8ue170006Ev, symObjAddr: 0x3F1C, symBinAddr: 0x100005EB4, symSize: 0x28 }
  - { offsetInCU: 0x1007A, offset: 0x1007A, size: 0x8, addend: 0x0, symName: __ZNKSt3__19allocatorINS_7complexIdEEE8max_sizeB8ue170006Ev, symObjAddr: 0x3F44, symBinAddr: 0x100005EDC, symSize: 0x14 }
  - { offsetInCU: 0x100A0, offset: 0x100A0, size: 0x8, addend: 0x0, symName: __ZNKSt3__117__compressed_pairIPNS_7complexIdEENS_9allocatorIS2_EEE6secondB8ue170006Ev, symObjAddr: 0x3F58, symBinAddr: 0x100005EF0, symSize: 0x24 }
  - { offsetInCU: 0x100C6, offset: 0x100C6, size: 0x8, addend: 0x0, symName: __ZNKSt3__122__compressed_pair_elemINS_9allocatorINS_7complexIdEEEELi1ELb1EE5__getB8ue170006Ev, symObjAddr: 0x3F7C, symBinAddr: 0x100005F14, symSize: 0x14 }
  - { offsetInCU: 0x100EC, offset: 0x100EC, size: 0x8, addend: 0x0, symName: __ZNSt3__19allocatorINS_7complexIdEEE8allocateB8ue170006Em, symObjAddr: 0x3F90, symBinAddr: 0x100005F28, symSize: 0x58 }
  - { offsetInCU: 0x10120, offset: 0x10120, size: 0x8, addend: 0x0, symName: __ZNSt3__117__compressed_pairIPNS_7complexIdEENS_9allocatorIS2_EEE5firstB8ue170006Ev, symObjAddr: 0x3FE8, symBinAddr: 0x100005F80, symSize: 0x24 }
  - { offsetInCU: 0x10146, offset: 0x10146, size: 0x8, addend: 0x0, symName: __ZNSt3__122__compressed_pair_elemIPNS_7complexIdEELi0ELb0EE5__getB8ue170006Ev, symObjAddr: 0x400C, symBinAddr: 0x100005FA4, symSize: 0x14 }
  - { offsetInCU: 0x10185, offset: 0x10185, size: 0x8, addend: 0x0, symName: __ZNSt3__16vectorINS_7complexIdEENS_9allocatorIS2_EEE21_ConstructTransactionC1B8ue170006ERS5_m, symObjAddr: 0x4020, symBinAddr: 0x100005FB8, symSize: 0x3C }
  - { offsetInCU: 0x101CD, offset: 0x101CD, size: 0x8, addend: 0x0, symName: __ZNSt3__116allocator_traitsINS_9allocatorINS_7complexIdEEEEE9constructB8ue170006IS3_JEvEEvRS4_PT_DpOT0_, symObjAddr: 0x405C, symBinAddr: 0x100005FF4, symSize: 0x2C }
  - { offsetInCU: 0x1020F, offset: 0x1020F, size: 0x8, addend: 0x0, symName: __ZNSt3__16vectorINS_7complexIdEENS_9allocatorIS2_EEE21_ConstructTransactionD1B8ue170006Ev, symObjAddr: 0x4088, symBinAddr: 0x100006020, symSize: 0x2C }
  - { offsetInCU: 0x10239, offset: 0x10239, size: 0x8, addend: 0x0, symName: __ZNSt3__16vectorINS_7complexIdEENS_9allocatorIS2_EEE21_ConstructTransactionC2B8ue170006ERS5_m, symObjAddr: 0x40B4, symBinAddr: 0x10000604C, symSize: 0x44 }
  - { offsetInCU: 0x10281, offset: 0x10281, size: 0x8, addend: 0x0, symName: __ZNSt3__19allocatorINS_7complexIdEEE9constructB8ue170006IS2_JEEEvPT_DpOT0_, symObjAddr: 0x40F8, symBinAddr: 0x100006090, symSize: 0x30 }
  - { offsetInCU: 0x102C3, offset: 0x102C3, size: 0x8, addend: 0x0, symName: __ZNSt3__17complexIdEC1B8ue170006Edd, symObjAddr: 0x4128, symBinAddr: 0x1000060C0, symSize: 0x3C }
  - { offsetInCU: 0x1030B, offset: 0x1030B, size: 0x8, addend: 0x0, symName: __ZNSt3__17complexIdEC2B8ue170006Edd, symObjAddr: 0x4164, symBinAddr: 0x1000060FC, symSize: 0x2C }
  - { offsetInCU: 0x10353, offset: 0x10353, size: 0x8, addend: 0x0, symName: __ZNSt3__16vectorINS_7complexIdEENS_9allocatorIS2_EEE21_ConstructTransactionD2B8ue170006Ev, symObjAddr: 0x4190, symBinAddr: 0x100006128, symSize: 0x20 }
  - { offsetInCU: 0x1037D, offset: 0x1037D, size: 0x8, addend: 0x0, symName: __ZNSt3__128__exception_guard_exceptionsINS_6vectorINS_7complexIdEENS_9allocatorIS3_EEE16__destroy_vectorEED2B8ue170006Ev, symObjAddr: 0x41B0, symBinAddr: 0x100006148, symSize: 0x48 }
  - { offsetInCU: 0x103A7, offset: 0x103A7, size: 0x8, addend: 0x0, symName: __ZNSt3__16vectorIPdNS_9allocatorIS1_EEEC2B8ue170006ESt16initializer_listIS1_E, symObjAddr: 0x41F8, symBinAddr: 0x100006190, symSize: 0x120 }
  - { offsetInCU: 0x103F7, offset: 0x103F7, size: 0x8, addend: 0x0, symName: __ZNSt3__117__compressed_pairIPPdNS_9allocatorIS1_EEEC1B8ue170006IDnNS_18__default_init_tagEEEOT_OT0_, symObjAddr: 0x4318, symBinAddr: 0x1000062B0, symSize: 0x3C }
  - { offsetInCU: 0x1044F, offset: 0x1044F, size: 0x8, addend: 0x0, symName: __ZNSt3__16vectorIPdNS_9allocatorIS1_EEE16__destroy_vectorC1B8ue170006ERS4_, symObjAddr: 0x4394, symBinAddr: 0x10000632C, symSize: 0x34 }
  - { offsetInCU: 0x10488, offset: 0x10488, size: 0x8, addend: 0x0, symName: __ZNKSt16initializer_listIPdE4sizeB8ue170006Ev, symObjAddr: 0x43C8, symBinAddr: 0x100006360, symSize: 0x18 }
  - { offsetInCU: 0x104AE, offset: 0x104AE, size: 0x8, addend: 0x0, symName: __ZNSt3__16vectorIPdNS_9allocatorIS1_EEE11__vallocateB8ue170006Em, symObjAddr: 0x43E0, symBinAddr: 0x100006378, symSize: 0xAC }
  - { offsetInCU: 0x104F2, offset: 0x104F2, size: 0x8, addend: 0x0, symName: __ZNSt3__16vectorIPdNS_9allocatorIS1_EEE18__construct_at_endIPKS1_S7_EEvT_T0_m, symObjAddr: 0x448C, symBinAddr: 0x100006424, symSize: 0x8C }
  - { offsetInCU: 0x10568, offset: 0x10568, size: 0x8, addend: 0x0, symName: __ZNKSt16initializer_listIPdE5beginB8ue170006Ev, symObjAddr: 0x4518, symBinAddr: 0x1000064B0, symSize: 0x18 }
  - { offsetInCU: 0x1058E, offset: 0x1058E, size: 0x8, addend: 0x0, symName: __ZNKSt16initializer_listIPdE3endB8ue170006Ev, symObjAddr: 0x4530, symBinAddr: 0x1000064C8, symSize: 0x20 }
  - { offsetInCU: 0x105B4, offset: 0x105B4, size: 0x8, addend: 0x0, symName: __ZNSt3__128__exception_guard_exceptionsINS_6vectorIPdNS_9allocatorIS2_EEE16__destroy_vectorEE10__completeB8ue170006Ev, symObjAddr: 0x4550, symBinAddr: 0x1000064E8, symSize: 0x1C }
  - { offsetInCU: 0x105DA, offset: 0x105DA, size: 0x8, addend: 0x0, symName: __ZNSt3__128__exception_guard_exceptionsINS_6vectorIPdNS_9allocatorIS2_EEE16__destroy_vectorEED1B8ue170006Ev, symObjAddr: 0x456C, symBinAddr: 0x100006504, symSize: 0x2C }
  - { offsetInCU: 0x10604, offset: 0x10604, size: 0x8, addend: 0x0, symName: __ZNSt3__117__compressed_pairIPPdNS_9allocatorIS1_EEEC2B8ue170006IDnNS_18__default_init_tagEEEOT_OT0_, symObjAddr: 0x4598, symBinAddr: 0x100006530, symSize: 0x40 }
  - { offsetInCU: 0x1065C, offset: 0x1065C, size: 0x8, addend: 0x0, symName: __ZNSt3__122__compressed_pair_elemIPPdLi0ELb0EEC2B8ue170006IDnvEEOT_, symObjAddr: 0x45D8, symBinAddr: 0x100006570, symSize: 0x1C }
  - { offsetInCU: 0x1069E, offset: 0x1069E, size: 0x8, addend: 0x0, symName: __ZNSt3__122__compressed_pair_elemINS_9allocatorIPdEELi1ELb1EEC2B8ue170006ENS_18__default_init_tagE, symObjAddr: 0x45F4, symBinAddr: 0x10000658C, symSize: 0x2C }
  - { offsetInCU: 0x106D3, offset: 0x106D3, size: 0x8, addend: 0x0, symName: __ZNSt3__19allocatorIPdEC2B8ue170006Ev, symObjAddr: 0x4620, symBinAddr: 0x1000065B8, symSize: 0x2C }
  - { offsetInCU: 0x106FD, offset: 0x106FD, size: 0x8, addend: 0x0, symName: __ZNSt3__116__non_trivial_ifILb1ENS_9allocatorIPdEEEC2B8ue170006Ev, symObjAddr: 0x464C, symBinAddr: 0x1000065E4, symSize: 0x14 }
  - { offsetInCU: 0x10727, offset: 0x10727, size: 0x8, addend: 0x0, symName: __ZNSt3__128__exception_guard_exceptionsINS_6vectorIPdNS_9allocatorIS2_EEE16__destroy_vectorEEC1B8ue170006ES6_, symObjAddr: 0x4660, symBinAddr: 0x1000065F8, symSize: 0x34 }
  - { offsetInCU: 0x1075F, offset: 0x1075F, size: 0x8, addend: 0x0, symName: __ZNSt3__128__exception_guard_exceptionsINS_6vectorIPdNS_9allocatorIS2_EEE16__destroy_vectorEEC2B8ue170006ES6_, symObjAddr: 0x4694, symBinAddr: 0x10000662C, symSize: 0x24 }
  - { offsetInCU: 0x10797, offset: 0x10797, size: 0x8, addend: 0x0, symName: __ZNSt3__16vectorIPdNS_9allocatorIS1_EEE16__destroy_vectorC2B8ue170006ERS4_, symObjAddr: 0x46B8, symBinAddr: 0x100006650, symSize: 0x20 }
  - { offsetInCU: 0x107D0, offset: 0x107D0, size: 0x8, addend: 0x0, symName: __ZNKSt3__16vectorIPdNS_9allocatorIS1_EEE8max_sizeEv, symObjAddr: 0x46D8, symBinAddr: 0x100006670, symSize: 0x60 }
  - { offsetInCU: 0x107F8, offset: 0x107F8, size: 0x8, addend: 0x0, symName: __ZNKSt3__16vectorIPdNS_9allocatorIS1_EEE20__throw_length_errorB8ue170006Ev, symObjAddr: 0x4738, symBinAddr: 0x1000066D0, symSize: 0x1C }
  - { offsetInCU: 0x1081E, offset: 0x1081E, size: 0x8, addend: 0x0, symName: __ZNSt3__16vectorIPdNS_9allocatorIS1_EEE7__allocB8ue170006Ev, symObjAddr: 0x4794, symBinAddr: 0x10000672C, symSize: 0x28 }
  - { offsetInCU: 0x10844, offset: 0x10844, size: 0x8, addend: 0x0, symName: __ZNSt3__16vectorIPdNS_9allocatorIS1_EEE9__end_capB8ue170006Ev, symObjAddr: 0x47BC, symBinAddr: 0x100006754, symSize: 0x28 }
  - { offsetInCU: 0x1086A, offset: 0x1086A, size: 0x8, addend: 0x0, symName: __ZNKSt3__16vectorIPdNS_9allocatorIS1_EEE14__annotate_newB8ue170006Em, symObjAddr: 0x47E4, symBinAddr: 0x10000677C, symSize: 0xAC }
  - { offsetInCU: 0x108A9, offset: 0x108A9, size: 0x8, addend: 0x0, symName: __ZNSt3__116allocator_traitsINS_9allocatorIPdEEE8max_sizeB8ue170006IS3_vEEmRKS3_, symObjAddr: 0x4890, symBinAddr: 0x100006828, symSize: 0x24 }
  - { offsetInCU: 0x108D7, offset: 0x108D7, size: 0x8, addend: 0x0, symName: __ZNKSt3__16vectorIPdNS_9allocatorIS1_EEE7__allocB8ue170006Ev, symObjAddr: 0x48B4, symBinAddr: 0x10000684C, symSize: 0x28 }
  - { offsetInCU: 0x108FD, offset: 0x108FD, size: 0x8, addend: 0x0, symName: __ZNKSt3__19allocatorIPdE8max_sizeB8ue170006Ev, symObjAddr: 0x48DC, symBinAddr: 0x100006874, symSize: 0x14 }
  - { offsetInCU: 0x10923, offset: 0x10923, size: 0x8, addend: 0x0, symName: __ZNKSt3__117__compressed_pairIPPdNS_9allocatorIS1_EEE6secondB8ue170006Ev, symObjAddr: 0x48F0, symBinAddr: 0x100006888, symSize: 0x24 }
  - { offsetInCU: 0x10949, offset: 0x10949, size: 0x8, addend: 0x0, symName: __ZNKSt3__122__compressed_pair_elemINS_9allocatorIPdEELi1ELb1EE5__getB8ue170006Ev, symObjAddr: 0x4914, symBinAddr: 0x1000068AC, symSize: 0x14 }
  - { offsetInCU: 0x1096F, offset: 0x1096F, size: 0x8, addend: 0x0, symName: __ZNSt3__19allocatorIPdE8allocateB8ue170006Em, symObjAddr: 0x4928, symBinAddr: 0x1000068C0, symSize: 0x58 }
  - { offsetInCU: 0x109A3, offset: 0x109A3, size: 0x8, addend: 0x0, symName: __ZNSt3__117__compressed_pairIPPdNS_9allocatorIS1_EEE6secondB8ue170006Ev, symObjAddr: 0x4980, symBinAddr: 0x100006918, symSize: 0x24 }
  - { offsetInCU: 0x109C9, offset: 0x109C9, size: 0x8, addend: 0x0, symName: __ZNSt3__122__compressed_pair_elemINS_9allocatorIPdEELi1ELb1EE5__getB8ue170006Ev, symObjAddr: 0x49A4, symBinAddr: 0x10000693C, symSize: 0x14 }
  - { offsetInCU: 0x109EF, offset: 0x109EF, size: 0x8, addend: 0x0, symName: __ZNSt3__117__compressed_pairIPPdNS_9allocatorIS1_EEE5firstB8ue170006Ev, symObjAddr: 0x49B8, symBinAddr: 0x100006950, symSize: 0x24 }
  - { offsetInCU: 0x10A15, offset: 0x10A15, size: 0x8, addend: 0x0, symName: __ZNSt3__122__compressed_pair_elemIPPdLi0ELb0EE5__getB8ue170006Ev, symObjAddr: 0x49DC, symBinAddr: 0x100006974, symSize: 0x14 }
  - { offsetInCU: 0x10A3B, offset: 0x10A3B, size: 0x8, addend: 0x0, symName: __ZNKSt3__16vectorIPdNS_9allocatorIS1_EEE31__annotate_contiguous_containerB8ue170006EPKvS6_S6_S6_, symObjAddr: 0x49F0, symBinAddr: 0x100006988, symSize: 0x20 }
  - { offsetInCU: 0x10A8D, offset: 0x10A8D, size: 0x8, addend: 0x0, symName: __ZNKSt3__16vectorIPdNS_9allocatorIS1_EEE4dataB8ue170006Ev, symObjAddr: 0x4A10, symBinAddr: 0x1000069A8, symSize: 0x28 }
  - { offsetInCU: 0x10AB3, offset: 0x10AB3, size: 0x8, addend: 0x0, symName: __ZNKSt3__16vectorIPdNS_9allocatorIS1_EEE8capacityB8ue170006Ev, symObjAddr: 0x4A38, symBinAddr: 0x1000069D0, symSize: 0x40 }
  - { offsetInCU: 0x10AD9, offset: 0x10AD9, size: 0x8, addend: 0x0, symName: __ZNKSt3__16vectorIPdNS_9allocatorIS1_EEE9__end_capB8ue170006Ev, symObjAddr: 0x4A8C, symBinAddr: 0x100006A24, symSize: 0x28 }
  - { offsetInCU: 0x10AFF, offset: 0x10AFF, size: 0x8, addend: 0x0, symName: __ZNKSt3__117__compressed_pairIPPdNS_9allocatorIS1_EEE5firstB8ue170006Ev, symObjAddr: 0x4AB4, symBinAddr: 0x100006A4C, symSize: 0x24 }
  - { offsetInCU: 0x10B25, offset: 0x10B25, size: 0x8, addend: 0x0, symName: __ZNKSt3__122__compressed_pair_elemIPPdLi0ELb0EE5__getB8ue170006Ev, symObjAddr: 0x4AD8, symBinAddr: 0x100006A70, symSize: 0x14 }
  - { offsetInCU: 0x10B64, offset: 0x10B64, size: 0x8, addend: 0x0, symName: __ZNSt3__16vectorIPdNS_9allocatorIS1_EEE21_ConstructTransactionC1B8ue170006ERS4_m, symObjAddr: 0x4AEC, symBinAddr: 0x100006A84, symSize: 0x3C }
  - { offsetInCU: 0x10BAC, offset: 0x10BAC, size: 0x8, addend: 0x0, symName: __ZNSt3__16vectorIPdNS_9allocatorIS1_EEE21_ConstructTransactionD1B8ue170006Ev, symObjAddr: 0x4BA8, symBinAddr: 0x100006B40, symSize: 0x2C }
  - { offsetInCU: 0x10BD6, offset: 0x10BD6, size: 0x8, addend: 0x0, symName: __ZNSt3__16vectorIPdNS_9allocatorIS1_EEE21_ConstructTransactionC2B8ue170006ERS4_m, symObjAddr: 0x4BD4, symBinAddr: 0x100006B6C, symSize: 0x44 }
  - { offsetInCU: 0x10C3C, offset: 0x10C3C, size: 0x8, addend: 0x0, symName: __ZNSt3__14pairIPKPdS3_EC1B8ue170006IS3_S3_LPv0EEEOT_OT0_, symObjAddr: 0x4D6C, symBinAddr: 0x100006D04, symSize: 0x3C }
  - { offsetInCU: 0x10C9A, offset: 0x10C9A, size: 0x8, addend: 0x0, symName: __ZNSt3__14pairIPKPdS3_EC2B8ue170006IS3_S3_LPv0EEEOT_OT0_, symObjAddr: 0x4DA8, symBinAddr: 0x100006D40, symSize: 0x34 }
  - { offsetInCU: 0x10CF8, offset: 0x10CF8, size: 0x8, addend: 0x0, symName: __ZNSt3__118__unwrap_iter_implIPKPdLb1EE8__unwrapB8ue170006ES3_, symObjAddr: 0x4DDC, symBinAddr: 0x100006D74, symSize: 0x24 }
  - { offsetInCU: 0x10D34, offset: 0x10D34, size: 0x8, addend: 0x0, symName: __ZNKSt3__114__copy_trivialclB8ue170006IKPdS2_Li0EEENS_4pairIPT_PT0_EES6_S6_S8_, symObjAddr: 0x4F90, symBinAddr: 0x100006F28, symSize: 0x48 }
  - { offsetInCU: 0x10DA6, offset: 0x10DA6, size: 0x8, addend: 0x0, symName: __ZNSt3__14pairIPKPdPS1_EC1B8ue170006IRS3_S4_LPv0EEEOT_OT0_, symObjAddr: 0x5158, symBinAddr: 0x1000070F0, symSize: 0x3C }
  - { offsetInCU: 0x10E04, offset: 0x10E04, size: 0x8, addend: 0x0, symName: __ZNSt3__14pairIPKPdPS1_EC2B8ue170006IRS3_S4_LPv0EEEOT_OT0_, symObjAddr: 0x5194, symBinAddr: 0x10000712C, symSize: 0x34 }
  - { offsetInCU: 0x10E62, offset: 0x10E62, size: 0x8, addend: 0x0, symName: __ZNSt3__14pairIPKPdPS1_EC1B8ue170006IS3_S4_LPv0EEEOT_OT0_, symObjAddr: 0x51C8, symBinAddr: 0x100007160, symSize: 0x3C }
  - { offsetInCU: 0x10EC0, offset: 0x10EC0, size: 0x8, addend: 0x0, symName: __ZNSt3__14pairIPKPdPS1_EC2B8ue170006IS3_S4_LPv0EEEOT_OT0_, symObjAddr: 0x5204, symBinAddr: 0x10000719C, symSize: 0x34 }
  - { offsetInCU: 0x10F1E, offset: 0x10F1E, size: 0x8, addend: 0x0, symName: __ZNSt3__118__unwrap_iter_implIPKPdLb1EE8__rewrapB8ue170006ES3_S3_, symObjAddr: 0x5274, symBinAddr: 0x10000720C, symSize: 0x50 }
  - { offsetInCU: 0x10F4F, offset: 0x10F4F, size: 0x8, addend: 0x0, symName: __ZNSt3__118__unwrap_iter_implIPPdLb1EE8__unwrapB8ue170006ES2_, symObjAddr: 0x52C4, symBinAddr: 0x10000725C, symSize: 0x24 }
  - { offsetInCU: 0x10F72, offset: 0x10F72, size: 0x8, addend: 0x0, symName: __ZNSt3__118__unwrap_iter_implIPPdLb1EE8__rewrapB8ue170006ES2_S2_, symObjAddr: 0x52E8, symBinAddr: 0x100007280, symSize: 0x50 }
  - { offsetInCU: 0x10FA3, offset: 0x10FA3, size: 0x8, addend: 0x0, symName: __ZNSt3__16vectorIPdNS_9allocatorIS1_EEE21_ConstructTransactionD2B8ue170006Ev, symObjAddr: 0x5338, symBinAddr: 0x1000072D0, symSize: 0x20 }
  - { offsetInCU: 0x10FCD, offset: 0x10FCD, size: 0x8, addend: 0x0, symName: __ZNSt3__128__exception_guard_exceptionsINS_6vectorIPdNS_9allocatorIS2_EEE16__destroy_vectorEED2B8ue170006Ev, symObjAddr: 0x5358, symBinAddr: 0x1000072F0, symSize: 0x50 }
  - { offsetInCU: 0x10FF7, offset: 0x10FF7, size: 0x8, addend: 0x0, symName: __ZNSt3__16vectorIPdNS_9allocatorIS1_EEE16__destroy_vectorclB8ue170006Ev, symObjAddr: 0x53A8, symBinAddr: 0x100007340, symSize: 0x90 }
  - { offsetInCU: 0x1101D, offset: 0x1101D, size: 0x8, addend: 0x0, symName: __ZNSt3__16vectorIPdNS_9allocatorIS1_EEE7__clearB8ue170006Ev, symObjAddr: 0x5438, symBinAddr: 0x1000073D0, symSize: 0x28 }
  - { offsetInCU: 0x11043, offset: 0x11043, size: 0x8, addend: 0x0, symName: __ZNKSt3__16vectorIPdNS_9allocatorIS1_EEE17__annotate_deleteB8ue170006Ev, symObjAddr: 0x5460, symBinAddr: 0x1000073F8, symSize: 0xB8 }
  - { offsetInCU: 0x11069, offset: 0x11069, size: 0x8, addend: 0x0, symName: __ZNSt3__116allocator_traitsINS_9allocatorIPdEEE10deallocateB8ue170006ERS3_PS2_m, symObjAddr: 0x5518, symBinAddr: 0x1000074B0, symSize: 0x34 }
  - { offsetInCU: 0x110AB, offset: 0x110AB, size: 0x8, addend: 0x0, symName: __ZNSt3__16vectorIPdNS_9allocatorIS1_EEE22__base_destruct_at_endB8ue170006EPS1_, symObjAddr: 0x554C, symBinAddr: 0x1000074E4, symSize: 0x8C }
  - { offsetInCU: 0x110EF, offset: 0x110EF, size: 0x8, addend: 0x0, symName: __ZNSt3__116allocator_traitsINS_9allocatorIPdEEE7destroyB8ue170006IS2_vEEvRS3_PT_, symObjAddr: 0x55D8, symBinAddr: 0x100007570, symSize: 0x2C }
  - { offsetInCU: 0x1112C, offset: 0x1112C, size: 0x8, addend: 0x0, symName: __ZNSt3__19allocatorIPdE7destroyB8ue170006EPS1_, symObjAddr: 0x5604, symBinAddr: 0x10000759C, symSize: 0x14 }
  - { offsetInCU: 0x11160, offset: 0x11160, size: 0x8, addend: 0x0, symName: __ZNKSt3__16vectorIPdNS_9allocatorIS1_EEE4sizeB8ue170006Ev, symObjAddr: 0x5618, symBinAddr: 0x1000075B0, symSize: 0x28 }
  - { offsetInCU: 0x11186, offset: 0x11186, size: 0x8, addend: 0x0, symName: __ZNSt3__19allocatorIPdE10deallocateB8ue170006EPS1_m, symObjAddr: 0x5640, symBinAddr: 0x1000075D8, symSize: 0x40 }
  - { offsetInCU: 0x111C8, offset: 0x111C8, size: 0x8, addend: 0x0, symName: __ZNSt3__16vectorIPdNS_9allocatorIS1_EEED2B8ue170006Ev, symObjAddr: 0x5680, symBinAddr: 0x100007618, symSize: 0x40 }
...
